


Gadgets
=======


0x0000000000012383: adc al, 0; add byte ptr [rax], al; syscall; 
0x0000000000012234: adc al, 0x11; lea rcx, [rip - 0x5d]; mov qword ptr [rax + 0x10], rcx; mov qword ptr [rax + 8], rdx; ret; 
0x000000000001c264: adc al, 0x2d; add dword ptr [rax], eax; ret; 
0x000000000001d2a9: adc al, 0x48; add esp, 0x1d0; pop rbx; pop rbp; pop r12; ret; 
0x0000000000011428: adc al, 0x85; ret 0x3375; 
0x0000000000011425: adc al, 0x89; adc al, 0x85; ret 0x3375; 
0x000000000001044e: adc al, 0xf8; add cl, ch; scasb al, byte ptr [rdi]; idiv bh; jmp qword ptr [rsi + 0x2e]; 
0x000000000001926b: adc al, ch; movd esi, mm7; jmp qword ptr [rsi + 0xf]; 
0x0000000000018928: adc al, ch; push rdx; mov edi, edi; dec dword ptr [rcx - 0x77]; ret; 
0x00000000000180b0: adc al, ch; retf 0xff91; dec dword ptr [rcx - 0x77]; ret; 
0x00000000000235c1: adc bl, dh; movq qword ptr [rdi + rdx - 0x10], mm0; movdqu xmmword ptr [rdi + rdx - 0x20], xmm0; ret; 
0x00000000000140fe: adc byte ptr [r11 + 0x5d], bl; pop r12; pop r13; pop r14; ret; 
0x000000000002253f: adc byte ptr [r14 + 0xf], r12b; xlatb; rol dword ptr [rbp + 0x315775c0], 0xc0; ret; 
0x0000000000023466: adc byte ptr [r15], r9b; adc dword ptr [rdi + rdx - 0x10], edx; movups xmmword ptr [rdi + rdx - 0x20], xmm3; ret; 
0x0000000000019277: adc byte ptr [r8], al; add byte ptr [rax], al; add byte ptr [rdi], cl; adc dword ptr [rbx], eax; pop rbx; ret; 
0x000000000000eacd: adc byte ptr [r9 + 3], cl; add eax, dword ptr [rbp - 0x7b]; leave; jne 0xeae7; mov qword ptr [rbp - 0xd8], r11; call rax; 
0x000000000000d366: adc byte ptr [rax + 0x39], cl; ret 0xf475; 
0x000000000001eb84: adc byte ptr [rax + 0x3b], cl; sub byte ptr [rbx - 0x1b], sil; mov eax, 1; ret; 
0x000000000001cd8d: adc byte ptr [rax + rcx*2 - 9], dh; ret 0; 
0x0000000000010e34: adc byte ptr [rax - 0x77], cl; ret 0x8148; 
0x000000000000ef83: adc byte ptr [rax - 0x77], cl; ret 0xf748; 
0x000000000001c94f: adc byte ptr [rax - 0x7d], cl; ret 0x4110; 
0x0000000000001e95: adc byte ptr [rax - 0x7d], cl; ret 0x4810; 
0x000000000001c9ef: adc byte ptr [rax - 0x7d], cl; ret 0xbb10; 
0x0000000000003790: adc byte ptr [rax - 0x7d], cl; ret; 
0x0000000000019278: adc byte ptr [rax], al; add byte ptr [rax], al; add byte ptr [rdi], cl; adc dword ptr [rbx], eax; pop rbx; ret; 
0x000000000001ee96: adc byte ptr [rax], al; add byte ptr [rax], al; mov eax, 0x48; syscall; 
0x00000000000142ed: adc byte ptr [rax], al; add byte ptr [rax], al; sub rax, rdx; lea rdi, [rip + 0x1a66d]; mov rbx, rax; call rcx; 
0x000000000001736c: adc byte ptr [rbp - 0x7cb70002], bl; ret; 
0x000000000001d982: adc byte ptr [rbp - 0xd], dh; mov byte ptr [rcx], 0; lea rax, [rcx + 1]; mov qword ptr [rdi], rax; mov rax, r8; ret; 
0x00000000000140ff: adc byte ptr [rbx + 0x5d], bl; pop r12; pop r13; pop r14; ret; 
0x000000000001401f: adc byte ptr [rbx + 0x5d], bl; ret; 
0x0000000000014dc7: adc byte ptr [rbx - 0x55], dh; xor eax, eax; ret; 
0x000000000000d12e: adc byte ptr [rbx], al; add byte ptr [rax], al; lea rax, [rax + rdx*4]; mov dword ptr [rdi + 0x2f4], edx; mov qword ptr [rdi + 0x308], rax; ret; 
0x000000000000d10d: adc byte ptr [rbx], al; add byte ptr [rax], al; ret; 
0x000000000001c60f: adc byte ptr [rcx + 0x110d205], cl; add bh, dh; ret 0; 
0x000000000000eace: adc byte ptr [rcx + 3], cl; add eax, dword ptr [rbp - 0x7b]; leave; jne 0xeae7; mov qword ptr [rbp - 0xd8], r11; call rax; 
0x0000000000011acc: adc byte ptr [rcx + rcx*4 + 0x4c], cl; and al, 0x10; call rax; 
0x000000000001f491: adc byte ptr [rcx - 0x46], al; or byte ptr [rax], al; add byte ptr [rax], al; mov eax, 0xd; syscall; 
0x000000000000a554: adc byte ptr [rcx - 0x9dfdbbc], cl; ret 0xf40; 
0x000000000001c5db: adc byte ptr [rcx], al; add bh, dh; ret 0; 
0x000000000001dcdc: adc byte ptr [rcx], al; add byte ptr [rax], al; mov eax, r12d; pop r12; ret; 
0x0000000000014b1c: adc byte ptr [rcx], dh; fisttp dword ptr [rax - 0x7b]; ror byte ptr [rdi], 0x94; ret; 
0x0000000000023563: adc byte ptr [rdi], cl; adc dword ptr [rdi + 0x20], esi; movups xmmword ptr [rdi + 0x30], xmm7; movups xmmword ptr [r11], xmm8; ret; 
0x0000000000023467: adc byte ptr [rdi], cl; adc dword ptr [rdi + rdx - 0x10], edx; movups xmmword ptr [rdi + rdx - 0x20], xmm3; ret; 
0x000000000001eca7: adc byte ptr [rdi], cl; sub dword ptr [rsp], ecx; call 0x23660; add rsp, 0xc8; ret; 
0x000000000000c552: adc byte ptr [rdi], cl; xchg eax, esp; ret 0xd108; 
0x000000000001a011: adc byte ptr [rdx + 0x18], dh; cmp rcx, qword ptr [rax + 0x18]; ja 0x1a02c; mov qword ptr [rax + 0x20], rcx; mov byte ptr [rax + 0x28], 1; ret; 
0x000000000001a010: adc byte ptr [rdx + 0x18], sil; cmp rcx, qword ptr [rax + 0x18]; ja 0x1a02c; mov qword ptr [rax + 0x20], rcx; mov byte ptr [rax + 0x28], 1; ret; 
0x0000000000019fa5: adc byte ptr [rdx + 0x1c], dh; cmp rdx, qword ptr [rdi + 0x18]; ja 0x19fc4; mov qword ptr [rdi + 0x20], rdx; mov byte ptr [rdi + 0x28], 1; ret; 
0x0000000000019f7c: adc byte ptr [rdx], 0; mov qword ptr [rip + 0x1514d], 0; add rsp, 8; ret; 
0x000000000001f7e5: adc byte ptr [rsi + 0xf], ah; outsd dx, dword ptr [rsi]; fmul qword ptr [rcx - 0x7d]; ret 0x7f10; 
0x000000000001f82b: adc byte ptr [rsi + 0xf], ah; outsd dx, dword ptr [rsi]; fsub st(1), st(0); imul edi, edi, -1; jmp qword ptr [rsi + 0x66]; 
0x0000000000022540: adc byte ptr [rsi + 0xf], ah; xlatb; rol dword ptr [rbp + 0x315775c0], 0xc0; ret; 
0x00000000000233a7: adc byte ptr [rsi + rdx - 0x10], cl; movups xmmword ptr [rdi], xmm0; movups xmmword ptr [rdi + rdx - 0x10], xmm1; ret; 
0x000000000002345d: adc byte ptr [rsi + rdx - 0x20], bl; movups xmmword ptr [rdi], xmm0; movups xmmword ptr [rdi + 0x10], xmm1; movups xmmword ptr [rdi + rdx - 0x10], xmm2; movups xmmword ptr [rdi + rdx - 0x20], xmm3; ret; 
0x000000000001a033: adc byte ptr [rsi + rsi*8 + 0x48], bh; cmp ecx, dword ptr [rax + 0x18]; jg 0x1a02c; mov qword ptr [rax + 0x20], rcx; mov byte ptr [rax + 0x28], 1; ret; 
0x0000000000019fcb: adc byte ptr [rsi + rsi*8 + 0x48], bh; cmp edx, dword ptr [rdi + 0x18]; jg 0x19fc4; mov qword ptr [rdi + 0x20], rdx; mov byte ptr [rdi + 0x28], 1; ret; 
0x000000000001a032: adc byte ptr [rsi + rsi*8 + 0x48], dil; cmp ecx, dword ptr [rax + 0x18]; jg 0x1a02c; mov qword ptr [rax + 0x20], rcx; mov byte ptr [rax + 0x28], 1; ret; 
0x00000000000233a4: adc byte ptr [rsi], al; movups xmm1, xmmword ptr [rsi + rdx - 0x10]; movups xmmword ptr [rdi], xmm0; movups xmmword ptr [rdi + rdx - 0x10], xmm1; ret; 
0x000000000001a019: adc cl, byte ptr [rax - 0x77]; and sil, al; sub byte ptr [rcx], al; ret; 
0x00000000000232b5: adc cl, byte ptr [rax - 1]; ret 0x2288; 
0x0000000000015b82: adc cl, byte ptr [rcx + 0x48b48d8]; ret 0x8b48; 
0x000000000001efce: adc dword ptr [rax + 0x101], edi; syscall; 
0x000000000001efce: adc dword ptr [rax + 0x101], edi; syscall; cmp rax, -0x1000; ja 0x1f008; ret; 
0x00000000000095ee: adc dword ptr [rax + 0x29], ecx; ret 0x149; 
0x000000000000e316: adc dword ptr [rax + 0x39], ecx; ret; 
0x000000000001f536: adc dword ptr [rax + 0x58], ebp; movups xmmword ptr [r8 + 0x68], xmm6; movups xmmword ptr [r8 + 0x78], xmm7; mov eax, r9d; add rsp, 0xd0; ret; 
0x000000000001f53b: adc dword ptr [rax + 0x68], esi; movups xmmword ptr [r8 + 0x78], xmm7; mov eax, r9d; add rsp, 0xd0; ret; 
0x000000000001f540: adc dword ptr [rax + 0x78], edi; mov eax, r9d; add rsp, 0xd0; ret; 
0x0000000000012235: adc dword ptr [rax - 0x73], ecx; or eax, 0xffffffa3; mov qword ptr [rax + 0x10], rcx; mov qword ptr [rax + 8], rdx; ret; 
0x000000000001d150: adc dword ptr [rax - 0x77], ecx; ret 0xc148; 
0x000000000001f058: adc dword ptr [rax], eax; add byte ptr [rax], al; syscall; 
0x000000000001f058: adc dword ptr [rax], eax; add byte ptr [rax], al; syscall; cmp rax, -0x1000; ja 0x1f070; ret; 
0x000000000001dcd7: adc dword ptr [rax], eax; add rsp, 0x110; mov eax, r12d; pop r12; ret; 
0x000000000001e9a7: adc dword ptr [rbx + 0x38], eax; pop rbx; ret; 
0x000000000001927e: adc dword ptr [rbx], eax; pop rbx; ret; 
0x000000000002356e: adc dword ptr [rbx], eax; ret; 
0x00000000000234f4: adc dword ptr [rbx], esp; ret; 
0x00000000000234e6: adc dword ptr [rcx - 0x10], esi; movups xmmword ptr [rcx - 0x20], xmm7; movups xmmword ptr [rcx - 0x30], xmm8; movups xmmword ptr [r11], xmm4; ret; 
0x00000000000234ea: adc dword ptr [rcx - 0x20], edi; movups xmmword ptr [rcx - 0x30], xmm8; movups xmmword ptr [r11], xmm4; ret; 
0x00000000000234ef: adc dword ptr [rcx - 0x30], eax; movups xmmword ptr [r11], xmm4; ret; 
0x000000000001df83: adc dword ptr [rcx], eax; add byte ptr [rax + rax], cl; add byte ptr [rax], al; mov eax, 0xffffffff; ret; 
0x00000000000234e3: adc dword ptr [rcx], ebp; movups xmmword ptr [rcx - 0x10], xmm6; movups xmmword ptr [rcx - 0x20], xmm7; movups xmmword ptr [rcx - 0x30], xmm8; movups xmmword ptr [r11], xmm4; ret; 
0x0000000000023561: adc dword ptr [rdi + 0x10], ebp; movups xmmword ptr [rdi + 0x20], xmm6; movups xmmword ptr [rdi + 0x30], xmm7; movups xmmword ptr [r11], xmm8; ret; 
0x0000000000023465: adc dword ptr [rdi + 0x10], ecx; movups xmmword ptr [rdi + rdx - 0x10], xmm2; movups xmmword ptr [rdi + rdx - 0x20], xmm3; ret; 
0x0000000000023565: adc dword ptr [rdi + 0x20], esi; movups xmmword ptr [rdi + 0x30], xmm7; movups xmmword ptr [r11], xmm8; ret; 
0x0000000000023569: adc dword ptr [rdi + 0x30], edi; movups xmmword ptr [r11], xmm8; ret; 
0x00000000000233af: adc dword ptr [rdi + rdx - 0x10], ecx; ret; 
0x0000000000023469: adc dword ptr [rdi + rdx - 0x10], edx; movups xmmword ptr [rdi + rdx - 0x20], xmm3; ret; 
0x000000000002343c: adc dword ptr [rdi + rdx - 0x10], esp; movups xmmword ptr [rdi + rdx - 0x20], xmm5; movups xmmword ptr [rdi + rdx - 0x30], xmm6; movups xmmword ptr [rdi + rdx - 0x40], xmm7; ret; 
0x0000000000023441: adc dword ptr [rdi + rdx - 0x20], ebp; movups xmmword ptr [rdi + rdx - 0x30], xmm6; movups xmmword ptr [rdi + rdx - 0x40], xmm7; ret; 
0x000000000002346e: adc dword ptr [rdi + rdx - 0x20], ebx; ret; 
0x0000000000023446: adc dword ptr [rdi + rdx - 0x30], esi; movups xmmword ptr [rdi + rdx - 0x40], xmm7; ret; 
0x000000000002344b: adc dword ptr [rdi + rdx - 0x40], edi; ret; 
0x0000000000023462: adc dword ptr [rdi], eax; movups xmmword ptr [rdi + 0x10], xmm1; movups xmmword ptr [rdi + rdx - 0x10], xmm2; movups xmmword ptr [rdi + rdx - 0x20], xmm3; ret; 
0x00000000000233ac: adc dword ptr [rdi], eax; movups xmmword ptr [rdi + rdx - 0x10], xmm1; ret; 
0x000000000002355e: adc dword ptr [rdi], esp; movups xmmword ptr [rdi + 0x10], xmm5; movups xmmword ptr [rdi + 0x20], xmm6; movups xmmword ptr [rdi + 0x30], xmm7; movups xmmword ptr [r11], xmm8; ret; 
0x000000000001460b: adc dword ptr [rip + 0x1a9a7], eax; pop r14; ret; 
0x000000000001f48e: adc dword ptr [rsp + 0x10], edi; mov r10d, 8; mov eax, 0xd; syscall; 
0x000000000001f48a: adc dword ptr [rsp], esi; movups xmmword ptr [rsp + 0x10], xmm7; mov r10d, 8; mov eax, 0xd; syscall; 
0x000000000001ebe0: adc eax, 0x1054b; add word ptr [rdx + rax*2], 1; ret; 
0x000000000000d71f: adc eax, 0x218bc; xor eax, eax; pop rbp; ret; 
0x000000000001696a: adc eax, 0x24048b49; pop rbx; add rax, qword ptr [rdx + 8]; pop rbp; pop r12; jmp rax; 
0x000000000001701f: adc eax, 0x75d03948; ror dword ptr [rcx - 0x75], cl; add cl, byte ptr [rcx - 0x7d]; ret 0x4808; 
0x000000000002363f: adc eax, 0xf880272; ret; 
0x000000000001cbdc: adc eax, 0xfffff6ef; call 0x1a5e0; mov rsi, r14; mov edi, 0x3001; mov eax, 0x9e; syscall; 
0x000000000002363a: adc eax, dword ptr [rax + 0x157701fa]; jb 0x23644; mov byte ptr [rdi], cl; ret; 
0x0000000000011b99: adc ecx, dword ptr [rax - 0x7d]; ret; 
0x000000000000dc85: adc ecx, dword ptr [rbx + rcx*4 + 0x33]; mov rax, qword ptr [rbx + 0x10]; add rax, qword ptr [r13]; call rax; 
0x000000000001446c: adc ecx, dword ptr [rbx + rcx*4 + 5]; sub al, 0xab; add dword ptr [rax], eax; mov rax, r8; ret; 
0x000000000000e652: adc ecx, dword ptr [rcx - 0x75]; add ecx, dword ptr [rax - 0x7d]; ret; 
0x0000000000008369: adc esi, dword ptr [rax - 0x3714ffff]; nop; ret; 
0x00000000000235c0: adc r11b, r14b; movq qword ptr [rdi + rdx - 0x10], mm0; movdqu xmmword ptr [rdi + rdx - 0x20], xmm0; ret; 
0x0000000000018927: adc r8b, bpl; push rdx; mov edi, edi; dec dword ptr [rcx - 0x77]; ret; 
0x00000000000180af: adc r8b, bpl; retf 0xff91; dec dword ptr [rcx - 0x77]; ret; 
0x0000000000009d6a: add ah, byte ptr [rsi + 0xf]; jo 0x9d30; add byte ptr [rax - 0x77], cl; ret 0x8348; 
0x00000000000123d4: add al, 0; add byte ptr [rax + 0x63], cl; ret; 
0x000000000001af98: add al, 0; add byte ptr [rax - 0x73], cl; xor eax, 0x13fde; mov edi, 0x3005; mov eax, 0x9e; syscall; 
0x00000000000145cc: add al, 0; add byte ptr [rax - 0x77], cl; ret; 
0x000000000001ece4: add al, 0; add byte ptr [rax], al; syscall; 
0x000000000001ece4: add al, 0; add byte ptr [rax], al; syscall; cmp rax, -0x1000; ja 0x1ecf8; ret; 
0x0000000000007aeb: add al, 0; add byte ptr [rcx + rcx*4 - 0xe], cl; call rcx; 
0x000000000000df2c: add al, 0; add byte ptr [rcx - 0x77], cl; ret; 
0x000000000000ab6a: add al, 0; add byte ptr [rcx - 1], al; ror byte ptr [rax - 0x77], cl; ret; 
0x0000000000020a2a: add al, 0x17; sub eax, ecx; ret; 
0x000000000001696d: add al, 0x24; pop rbx; add rax, qword ptr [rdx + 8]; pop rbp; pop r12; jmp rax; 
0x000000000001ac51: add al, 0x25; add byte ptr [rax], al; add byte ptr [rax], al; mov rdi, qword ptr [rsp - 8]; ret; 
0x000000000001abfb: add al, 0x25; add byte ptr [rax], al; add byte ptr [rax], al; ret; 
0x0000000000017ccb: add al, 0x48; lea edi, [rcx + rax + 0xe08]; call rdx; 
0x0000000000012111: add al, 0x48; lea edi, [rcx + rax + 0xe08]; call rsi; 
0x0000000000017d51: add al, 0x48; lea edi, [rdi + rax + 0xe08]; call rcx; 
0x000000000001768a: add al, 0x48; lea edi, [rdi + rcx + 0xe08]; call rax; 
0x0000000000016739: add al, 0x48; lea edi, [rsi + rax + 0xe08]; xor esi, esi; call rdx; 
0x0000000000014d1f: add al, 0x48; mov eax, dword ptr [rdx + rax]; cmp rax, -1; je 0x14d38; add rax, qword ptr [rdi + 8]; ret; 
0x000000000001adcf: add al, 0x48; mov eax, dword ptr [rdx + rax]; cmp rax, -1; je 0x1addf; add rax, qword ptr [rdi + 8]; ret; 
0x0000000000014d78: add al, 0x48; mov eax, dword ptr [rdx + rax]; mov edx, 0; cmp rax, -1; cmove rax, rdx; ret; 
0x0000000000012231: add al, 0x48; mov edx, dword ptr [rcx + rdx]; lea rcx, [rip - 0x5d]; mov qword ptr [rax + 0x10], rcx; mov qword ptr [rax + 8], rdx; ret; 
0x0000000000022fc8: add al, 0x48; xor eax, eax; ret; 
0x0000000000017ad6: add al, 0x49; lea edi, [rbp + rax + 0x480]; call rcx; 
0x00000000000050fc: add al, 0x49; lea edi, [rbp + rax + 0x480]; call rdx; 
0x00000000000051b5: add al, 0x49; lea edi, [rbp + rax + 0xe08]; call rdx; 
0x0000000000007cc6: add al, 0x49; lea edi, [rdi + rax + 0x480]; call rdx; 
0x00000000000120ae: add al, 0x49; lea edi, [rdi + rax + 0x480]; call rsi; 
0x0000000000016679: add al, 0x49; lea edi, [rsi + rax + 0x480]; call rdx; 
0x0000000000007d0b: add al, 0x49; lea edi, [rsi + rax + 0xe08]; call rdx; 
0x000000000001747d: add al, 0x49; lea edi, [rsp + rax + 0x480]; call rcx; 
0x0000000000005ee1: add al, 0x4b; lea edx, [rbp + rsi + 8]; call rcx; 
0x0000000000014dc2: add al, 0x4c; cmp eax, dword ptr [rcx + rsi + 0x10]; jae 0x14d75; xor eax, eax; ret; 
0x0000000000007ae5: add al, 0x4d; lea esi, [rsp + rax + 0x480]; mov rdx, r14; call rcx; 
0x000000000000d82e: add al, 0x5d; ret; 
0x0000000000023638: add al, 0x73; adc eax, dword ptr [rax + 0x157701fa]; jb 0x23644; mov byte ptr [rdi], cl; ret; 
0x0000000000007ae9: add al, 0x80; add al, 0; add byte ptr [rcx + rcx*4 - 0xe], cl; call rcx; 
0x000000000000ab68: add al, 0x80; add al, 0; add byte ptr [rcx - 1], al; ror byte ptr [rax - 0x77], cl; ret; 
0x000000000000d134: add al, 0x90; mov dword ptr [rdi + 0x2f4], edx; mov qword ptr [rdi + 0x308], rax; ret; 
0x000000000000d102: add al, 0x90; mov dword ptr [rdi + 0x2fc], ecx; mov qword ptr [rdi + 0x310], rax; ret; 
0x000000000001ebd3: add al, 0xa; cmp rax, qword ptr [rip + 0x1054c]; jae 0x1ebea; mov rdx, qword ptr [rip + 0x1054b]; add word ptr [rdx + rax*2], 1; ret; 
0x0000000000014117: add al, 0xe8; or edi, 0xfffffffe; dec dword ptr [rax - 0x77]; ret; 
0x000000000001ecfd: add al, 1; add byte ptr [rax - 1], bh; ret; 
0x000000000001ed13: add al, 1; add byte ptr [rsi], dl; add byte ptr [rax], al; add byte ptr [rax - 1], bh; ret; 
0x0000000000001156: add al, 1; ret; 
0x0000000000014d22: add al, 2; cmp rax, -1; je 0x14d38; add rax, qword ptr [rdi + 8]; ret; 
0x000000000001add2: add al, 2; cmp rax, -1; je 0x1addf; add rax, qword ptr [rdi + 8]; ret; 
0x0000000000014d7b: add al, 2; mov edx, 0; cmp rax, -1; cmove rax, rdx; ret; 
0x0000000000022c41: add al, 7; cmp byte ptr [rax], sil; cmovne rax, rdx; ret; 
0x00000000000232b1: add al, byte ptr [rax + rax*8 - 0xb7ed8c]; ret 0x2288; 
0x0000000000006edc: add al, byte ptr [rax]; add byte ptr [rax + 0x29], cl; ret; 
0x000000000000c4f5: add al, byte ptr [rax]; add byte ptr [rax + 0x39], cl; ret 0x840f; 
0x0000000000022332: add al, byte ptr [rax]; add byte ptr [rax + 1], cl; clc; add rax, rcx; ret; 
0x000000000000a1b7: add al, byte ptr [rax]; add byte ptr [rax - 0x7d], cl; jge 0xa186; add byte ptr [rax - 0x77], cl; ret; 
0x0000000000017acb: add al, byte ptr [rax]; add byte ptr [rax], al; add r12d, 1; shl rax, 4; lea rdi, [r13 + rax + 0x480]; call rcx; 
0x0000000000017d46: add al, byte ptr [rax]; add byte ptr [rax], al; add r12d, 1; shl rax, 4; lea rdi, [rdi + rax + 0xe08]; call rcx; 
0x0000000000017e76: add al, byte ptr [rax]; add byte ptr [rax], al; test byte ptr [rip + 0x1579f], 0x40; jne 0x17e88; ret; 
0x000000000001391f: add al, byte ptr [rax]; add byte ptr [rbx - 0x28f7b], cl; jmp qword ptr [rsi + 0xf]; 
0x0000000000004ddd: add al, byte ptr [rax]; add byte ptr [rcx - 0x1af7b], cl; dec dword ptr [rax - 0x77]; ret 0x8d48; 
0x0000000000005b7d: add al, byte ptr [rax]; add byte ptr [rdi + 1], bh; call rax; 
0x0000000000005ed5: add al, byte ptr [rax]; add r14, 0xe0; shl r14, 4; lea rdx, [r13 + r14 + 8]; call rcx; 
0x00000000000016ab: add al, byte ptr [rax]; call 0x12f0; add rsp, 0x40; pop rbx; ret; 
0x000000000000cd17: add al, byte ptr [rax]; call rdx; 
0x00000000000016a4: add al, byte ptr [rax]; lea rdi, [rip + 0x24c83]; call 0x12f0; add rsp, 0x40; pop rbx; ret; 
0x0000000000001cb0: add al, byte ptr [rax]; mov eax, 0x9e; mov qword ptr [rsi], rsi; mov qword ptr [rsi + 0x10], rsi; syscall; 
0x000000000000d823: add al, byte ptr [rax]; nop dword ptr [rax]; or byte ptr [rbp + 0x31d], 4; pop rbp; ret; 
0x000000000000d722: add al, byte ptr [rax]; xor eax, eax; pop rbp; ret; 
0x000000000001d07b: add al, byte ptr [rbx - 0x78f0d208]; movabs dword ptr [0x48d48c689000000], eax; jbe 0x1d09b; mov dh, 0x44; ret; 
0x000000000001eead: add al, byte ptr [rcx]; add byte ptr [rax - 1], bh; ret; 
0x000000000001391e: add al, byte ptr ds:[rax]; add byte ptr [rbx - 0x28f7b], cl; jmp qword ptr [rsi + 0xf]; 
0x0000000000019f7a: add al, ch; adc byte ptr [rdx], 0; mov qword ptr [rip + 0x1514d], 0; add rsp, 8; ret; 
0x00000000000121d0: add al, ch; mov edx, 0x660000b5; nop dword ptr cs:[rax + rax]; endbr64; ret; 
0x0000000000001cea: add al, ch; movabs al, byte ptr [0xf08948deeb0001d5]; mov byte ptr [rip + 0x2d31c], 1; pop rbx; ret; 
0x0000000000014e49: add al, ch; push rcx; ret 0xfffe; 
0x000000000000a3a7: add al, ch; ret; 
0x00000000000047a5: add bh, al; sbb byte ptr [rax], al; add byte ptr [rax], al; add byte ptr [rax - 0x77], cl; ret; 
0x000000000001d6c9: add bh, al; stc; jb 0x1d742; outsd dx, dword ptr [rsi]; mov word ptr [rax + 4], dx; ret; 
0x000000000000e0d4: add bh, bh; ror byte ptr [rax - 0x7d], 1; ret; 
0x0000000000014d7c: add bh, byte ptr [rdx]; cmp rax, -1; cmove rax, rdx; ret; 
0x000000000001f007: add bh, dh; fmul dword ptr [rcx + 0x1013005]; add byte ptr [rax - 1], bh; ret; 
0x000000000001ef9f: add bh, dh; fmul dword ptr [rcx + 0x1019805]; add byte ptr [rax - 1], bh; ret; 
0x000000000001ee37: add bh, dh; fmul dword ptr [rcx + 0x1030005]; add byte ptr [rax - 1], bh; ret; 
0x000000000001ee07: add bh, dh; fmul dword ptr [rcx + 0x1033005]; add byte ptr [rax - 1], bh; ret; 
0x000000000001ed97: add bh, dh; fmul dword ptr [rcx + 0x103a005]; add byte ptr [rax - 1], bh; ret; 
0x000000000001ed47: add bh, dh; fmul dword ptr [rcx + 0x103f005]; add byte ptr [rax - 1], bh; ret; 
0x000000000001ecf7: add bh, dh; fmul dword ptr [rcx + 0x1044005]; add byte ptr [rax - 1], bh; ret; 
0x000000000001e79f: add bh, dh; fmul dword ptr [rcx + 0x1099805]; add byte ptr [rax - 1], bh; ret; 
0x000000000001e4df: add bh, dh; fmul dword ptr [rcx + 0x10c5805]; add byte ptr [rax - 1], bh; ret; 
0x000000000001b1a6: add bh, dh; fucomip st(0); xor bl, byte ptr [rdi - 2]; jmp qword ptr [rsi - 0x70]; 
0x000000000001c5dd: add bh, dh; ret 0; 
0x000000000000a965: add bh, dh; ret; 
0x0000000000006740: add bl, byte ptr [rbx + 0x4c]; mov eax, esp; pop rbp; pop r12; pop r13; ret; 
0x000000000000673f: add bl, byte ptr gs:[rbx + 0x4c]; mov eax, esp; pop rbp; pop r12; pop r13; ret; 
0x0000000000005e2c: add bl, ch; mov rdx, r14; xor esi, esi; mov rdi, r15; call rcx; 
0x000000000001ef52: add byte ptr [r10 + 0x44], sil; mov edx, eax; mov rsi, r9; mov edi, 0xffffff9c; mov eax, 0x101; syscall; 
0x000000000001e4c3: add byte ptr [r15 - 0x48], sil; add dword ptr [rcx], eax; add byte ptr [rax], al; syscall; 
0x000000000001ecae: add byte ptr [r8], al; add rsp, 0xc8; ret; 
0x000000000001efcb: add byte ptr [r9 + rdx - 0x48], sil; add dword ptr [rcx], eax; add byte ptr [rax], al; syscall; 
0x000000000001a586: add byte ptr [rax + 0x15], bh; syscall; 
0x000000000000d8d5: add byte ptr [rax + 0x21], cl; test dword ptr [rax + 0x21], 0xc73948f0; jne 0xd8e8; pop rbx; ret; 
0x000000000000be48: add byte ptr [rax + 0x29], cl; ret 0x8d48; 
0x000000000001eb44: add byte ptr [rax + 0x29], cl; ret 0xc148; 
0x0000000000006ede: add byte ptr [rax + 0x29], cl; ret; 
0x00000000000142f0: add byte ptr [rax + 0x29], cl; ror byte ptr [rax - 0x73], 1; cmp eax, 0x1a66d; mov rbx, rax; call rcx; 
0x000000000001058d: add byte ptr [rax + 0x31ca0], al; add byte ptr [rdi - 0x2c517], bl; jmp qword ptr [rsi + 0xf]; 
0x000000000000c4f7: add byte ptr [rax + 0x39], cl; ret 0x840f; 
0x000000000001a6a8: add byte ptr [rax + 0x39], cl; ret 0x860f; 
0x000000000000f8cf: add byte ptr [rax + 0x39], cl; ret 0xf48; 
0x0000000000009052: add byte ptr [rax + 0x39], cl; ret; 
0x000000000001d60a: add byte ptr [rax + 0x39], cl; stc; je 0x1d618; ret; 
0x000000000001ee99: add byte ptr [rax + 0x48], bh; syscall; 
0x0000000000014f25: add byte ptr [rax + 0x59], bh; mov rbp, rsp; mov rsi, rbp; syscall; 
0x00000000000123d6: add byte ptr [rax + 0x63], cl; ret; 
0x00000000000232af: add byte ptr [rax + 0x74c08402], cl; adc cl, byte ptr [rax - 1]; ret 0x2288; 
0x0000000000001cb1: add byte ptr [rax + 0x9e], bh; mov qword ptr [rsi], rsi; mov qword ptr [rsi + 0x10], rsi; syscall; 
0x000000000001afa6: add byte ptr [rax + 0x9e], bh; syscall; 
0x000000000000cc92: add byte ptr [rax + 0xca], bh; syscall; 
0x000000000001f497: add byte ptr [rax + 0xd], bh; syscall; 
0x0000000000022334: add byte ptr [rax + 1], cl; clc; add rax, rcx; ret; 
0x0000000000019b9c: add byte ptr [rax + 9], cl; ret 0x4475; 
0x0000000000008690: add byte ptr [rax + 9], cl; ret 0x850f; 
0x0000000000017482: add byte ptr [rax + rax], 0; call rcx; 
0x0000000000005101: add byte ptr [rax + rax], 0; call rdx; 
0x00000000000120b3: add byte ptr [rax + rax], 0; call rsi; 
0x0000000000007aea: add byte ptr [rax + rax], 0; mov rdx, r14; call rcx; 
0x000000000001df85: add byte ptr [rax + rax], cl; add byte ptr [rax], al; mov eax, 0xffffffff; ret; 
0x000000000001f144: add byte ptr [rax + rax], cl; add byte ptr [rax], al; pop rbp; pop r12; ret; 
0x000000000000d486: add byte ptr [rax - 0x168b7f80], 0x89; ret 0xeac1; 
0x000000000001ce91: add byte ptr [rax - 0x377c011c], al; sbb byte ptr [rcx + 0x1084e05], cl; add cl, ch; ret; 
0x000000000001ddad: add byte ptr [rax - 0x39], cl; add eax, 0x1134f; add byte ptr [rax], al; add byte ptr [rax], al; mov qword ptr [rip + 0x11340], r8; call rsi; 
0x0000000000019f7f: add byte ptr [rax - 0x39], cl; add eax, 0x1514d; add byte ptr [rax], al; add byte ptr [rax], al; add rsp, 8; ret; 
0x0000000000019721: add byte ptr [rax - 0x39], cl; ret 0xffff; 
0x000000000001f3df: add byte ptr [rax - 0x39], cl; ror byte ptr [rdi], 0; add byte ptr [rax], al; syscall; 
0x000000000001f324: add byte ptr [rax - 0x3f], cl; ret 0x4811; 
0x000000000001c26f: add byte ptr [rax - 0x46], cl; jo 0x1c2d9; jb 0x1c2e3; imul esi, dword ptr [rbx + 0x73], 0x10394869; je 0x1c2a0; ret; 
0x000000000001c2ff: add byte ptr [rax - 0x46], cl; jo 0x1c369; jb 0x1c373; imul esi, dword ptr [rbx + 0x73], 0x10394869; je 0x1c330; ret; 
0x000000000000d131: add byte ptr [rax - 0x73], cl; add al, 0x90; mov dword ptr [rdi + 0x2f4], edx; mov qword ptr [rdi + 0x308], rax; ret; 
0x000000000000d0ff: add byte ptr [rax - 0x73], cl; add al, 0x90; mov dword ptr [rdi + 0x2fc], ecx; mov qword ptr [rdi + 0x310], rax; ret; 
0x0000000000022c3e: add byte ptr [rax - 0x73], cl; add al, 7; cmp byte ptr [rax], sil; cmovne rax, rdx; ret; 
0x000000000001d71f: add byte ptr [rax - 0x73], cl; add eax, 0x8977; ret; 
0x000000000001d6ef: add byte ptr [rax - 0x73], cl; add eax, 0x89be; ret; 
0x000000000001d72f: add byte ptr [rax - 0x73], cl; add eax, 0x89d5; ret; 
0x000000000001d6ff: add byte ptr [rax - 0x73], cl; add eax, 0x89e0; ret; 
0x000000000001d70f: add byte ptr [rax - 0x73], cl; add eax, 0x89e3; ret; 
0x000000000001d6df: add byte ptr [rax - 0x73], cl; add eax, 0x89e8; ret; 
0x0000000000014f1e: add byte ptr [rax - 0x73], cl; cmp eax, 0x10a86; mov eax, 0x59; mov rbp, rsp; mov rsi, rbp; syscall; 
0x00000000000121c9: add byte ptr [rax - 0x73], cl; cmp eax, 0x15b4f; call 0x1d790; nop word ptr cs:[rax + rax]; endbr64; ret; 
0x000000000000cd11: add byte ptr [rax - 0x73], cl; cmp eax, 0x21c4f; call rdx; 
0x00000000000016a5: add byte ptr [rax - 0x73], cl; cmp eax, 0x24c83; call 0x12f0; add rsp, 0x40; pop rbx; ret; 
0x0000000000019f5a: add byte ptr [rax - 0x73], cl; dec dword ptr [r8 - 0x7d]; clc; std; jbe 0x19f70; ret; 
0x000000000001ee8f: add byte ptr [rax - 0x73], cl; push rsp; and al, 0xb0; mov esi, 0x10; mov eax, 0x48; syscall; 
0x000000000001eeef: add byte ptr [rax - 0x73], cl; push rsp; and al, 0xf8; mov esi, 0x10; mov eax, 0x48; syscall; 
0x000000000001af9a: add byte ptr [rax - 0x73], cl; xor eax, 0x13fde; mov edi, 0x3005; mov eax, 0x9e; syscall; 
0x000000000001c83f: add byte ptr [rax - 0x75], cl; adc byte ptr [rax - 0x7d], cl; ret 0x4810; 
0x0000000000015b7f: add byte ptr [rax - 0x75], cl; adc cl, byte ptr [rcx + 0x48b48d8]; ret 0x8b48; 
0x000000000000e64f: add byte ptr [rax - 0x75], cl; adc ecx, dword ptr [rcx - 0x75]; add ecx, dword ptr [rax - 0x7d]; ret; 
0x000000000000fcff: add byte ptr [rax - 0x75], cl; cmp cl, byte ptr [rax - 0x7d]; ret 0xf08; 
0x000000000001ac56: add byte ptr [rax - 0x75], cl; jl 0x1ac7f; clc; ret; 
0x0000000000006cef: add byte ptr [rax - 0x75], cl; or byte ptr [r8 - 0x7b], cl; sal byte ptr [rdi + 0x48], 0x89; ret; 
0x000000000001d3d7: add byte ptr [rax - 0x75], cl; or byte ptr [rax - 0x7d], cl; ret 0x4808; 
0x000000000001c8f7: add byte ptr [rax - 0x75], cl; or byte ptr [rax - 0x7d], cl; ret 0xc610; 
0x0000000000011b4a: add byte ptr [rax - 0x75], cl; or byte ptr [rcx + rcx*4 - 0x16], cl; add rax, qword ptr [rbx]; mov rsi, r12; mov edi, ebp; call rax; 
0x0000000000005b6f: add byte ptr [rax - 0x75], cl; test dword ptr [rax + 0x48fffffe], esi; test eax, eax; je 0x5dca; mov edi, 1; call rax; 
0x000000000001d62f: add byte ptr [rax - 0x77], cl; add eax, 0x11ac1; add rsp, 8; ret; 
0x0000000000001caa: add byte ptr [rax - 0x77], cl; add eax, 0x2d31e; mov eax, 0x9e; mov qword ptr [rsi], rsi; mov qword ptr [rsi + 0x10], rsi; syscall; 
0x0000000000012a26: add byte ptr [rax - 0x77], cl; and al, 0x18; call 0x12290; add rsp, 0xd8; ret; 
0x000000000001ee6f: add byte ptr [rax - 0x77], cl; and al, 0xc8; cmp esi, 9; je 0x1ee90; mov eax, 0x48; syscall; 
0x0000000000014f2a: add byte ptr [rax - 0x77], cl; in eax, 0x48; mov esi, ebp; syscall; 
0x0000000000019fbf: add byte ptr [rax - 0x77], cl; ja 0x19fe4; ret; 
0x000000000000229f: add byte ptr [rax - 0x77], cl; jne 0x2244; mov qword ptr [rbp - 0x58], rdx; mov qword ptr [rbp - 0x50], rcx; mov qword ptr [rbp - 0x48], rdi; call rax; 
0x000000000001a027: add byte ptr [rax - 0x77], cl; jo 0x1a04c; ret; 
0x0000000000001cb6: add byte ptr [rax - 0x77], cl; mov qword ptr ss:[rsi + 0x10], rsi; syscall; 
0x00000000000011ad: add byte ptr [rax - 0x77], cl; or byte ptr [r8 + 0x5a], bl; pop rbx; ret; 
0x000000000001d4ed: add byte ptr [rax - 0x77], cl; or eax, 0x11c03; add rsp, 8; pop rbx; pop rbp; ret; 
0x00000000000143af: add byte ptr [rax - 0x77], cl; ret 0x2948; 
0x00000000000113f7: add byte ptr [rax - 0x77], cl; ret 0x5958; 
0x0000000000009d6f: add byte ptr [rax - 0x77], cl; ret 0x8348; 
0x00000000000048f4: add byte ptr [rax - 0x77], cl; ret 0x8548; 
0x0000000000019169: add byte ptr [rax - 0x77], cl; ret 0x894c; 
0x000000000000d1af: add byte ptr [rax - 0x77], cl; ret 0x8b48; 
0x0000000000001a1f: add byte ptr [rax - 0x77], cl; ret 0xc031; 
0x00000000000117e7: add byte ptr [rax - 0x77], cl; ret 0xc148; 
0x00000000000047ac: add byte ptr [rax - 0x77], cl; ret; 
0x000000000001ddc8: add byte ptr [rax - 0x77], cl; sbb eax, 0x11330; add rsp, 8; pop rbx; pop rbp; ret; 
0x00000000000046ba: add byte ptr [rax - 0x77], cl; sbb ecx, dword ptr [rax - 0x77]; fidivr word ptr [rax + 0x9e]; mov edi, 0x1002; mov qword ptr [rbx + 0x10], rbx; syscall; 
0x000000000001dcfa: add byte ptr [rax - 0x77], cl; xlatb; xor r12d, r12d; call rsi; 
0x000000000000ae39: add byte ptr [rax - 0x7b], cl; ror byte ptr [rax + 0xf], 0x44; ret 0x80f6; 
0x000000000000caaa: add byte ptr [rax - 0x7b], cl; ror byte ptr [rdi], 0x94; ret 0x3948; 
0x000000000000633a: add byte ptr [rax - 0x7b], cl; sal byte ptr [rsi + rbp + 0x48], 0x89; ret 0x294c; 
0x0000000000003a97: add byte ptr [rax - 0x7b], cl; test byte ptr [rdi], 0x84; ret; 
0x00000000000235a1: add byte ptr [rax - 0x7d], cl; cli; and byte ptr [rdi + 0xb], dh; movdqu xmmword ptr [rdi + rdx - 0x10], xmm0; movdqu xmmword ptr [rdi], xmm0; ret; 
0x000000000000a1b9: add byte ptr [rax - 0x7d], cl; jge 0xa186; add byte ptr [rax - 0x77], cl; ret; 
0x0000000000006aa5: add byte ptr [rax - 0x7d], cl; ret 0x4807; 
0x000000000001535f: add byte ptr [rax - 0x7d], cl; ret 0x4808; 
0x0000000000013ea2: add byte ptr [rax - 0x7d], cl; ret 0x4c08; 
0x000000000001a53f: add byte ptr [rax - 0x7d], cl; ret 0x8801; 
0x000000000001a2b7: add byte ptr [rax - 0x7d], cl; ret 0xf01; 
0x0000000000002179: add byte ptr [rax - 0x7d], cl; ret; 
0x00000000000230ff: add byte ptr [rax - 0x7d], cl; rol byte ptr [rax + 0x49], 0x39; ret 0x2774; 
0x0000000000016c45: add byte ptr [rax - 0x7d], cl; ror dword ptr [rax], 0x83; ret 0x4801; 
0x000000000001df89: add byte ptr [rax - 1], bh; ret; 
0x000000000002255b: add byte ptr [rax], 0; add byte ptr [rax], al; bsf eax, eax; add rax, rdi; ret; 
0x000000000002257b: add byte ptr [rax], 0; add byte ptr [rax], al; bsf eax, eax; lea rax, [rax + rdi + 0x20]; ret; 
0x000000000001694b: add byte ptr [rax], 0; add byte ptr [rax], al; call qword ptr [rbx]; 
0x0000000000014403: add byte ptr [rax], 0; add byte ptr [rax], al; cmp rax, r8; ja 0x14418; add rsp, 8; ret; 
0x000000000001f1fb: add byte ptr [rax], 0; add byte ptr [rax], al; endbr64; mov eax, 0xb; syscall; 
0x000000000001abeb: add byte ptr [rax], 0; add byte ptr [rax], al; endbr64; mov rax, qword ptr [rax + 8]; sub rax, qword ptr fs:[0]; ret; 
0x000000000000115b: add byte ptr [rax], 0; add byte ptr [rax], al; endbr64; sub dword ptr [rdi + 4], 1; ret; 
0x000000000001f5ab: add byte ptr [rax], 0; add byte ptr [rax], al; mov dword ptr [rip + 0xfb86], 0x16; mov eax, 0xffffffff; ret; 
0x000000000001f193: add byte ptr [rax], 0; add byte ptr [rax], al; mov dword ptr [rip + 0xff9e], 0x16; mov rax, -1; ret; 
0x000000000001f033: add byte ptr [rax], 0; add byte ptr [rax], al; neg eax; mov dword ptr [rip + 0x10100], eax; mov rax, -1; ret; 
0x000000000001697b: add byte ptr [rax], 0; add byte ptr [rax], al; pop rbx; pop rbp; pop r12; ret; 
0x000000000001eb93: add byte ptr [rax], 0; add byte ptr [rax], al; xor eax, eax; ret; 
0x000000000001cd8b: add byte ptr [rax], al; adc byte ptr [rax + rcx*2 - 9], dh; ret 0; 
0x000000000000a552: add byte ptr [rax], al; adc byte ptr [rcx - 0x9dfdbbc], cl; ret 0xf40; 
0x000000000000d82c: add byte ptr [rax], al; add al, 0x5d; ret; 
0x0000000000001ce8: add byte ptr [rax], al; add al, ch; movabs al, byte ptr [0xf08948deeb0001d5]; mov byte ptr [rip + 0x2d31c], 1; pop rbx; ret; 
0x000000000001e79d: add byte ptr [rax], al; add bh, dh; fmul dword ptr [rcx + 0x1099805]; add byte ptr [rax - 1], bh; ret; 
0x000000000001e4dd: add byte ptr [rax], al; add bh, dh; fmul dword ptr [rcx + 0x10c5805]; add byte ptr [rax - 1], bh; ret; 
0x000000000000a963: add byte ptr [rax], al; add bh, dh; ret; 
0x000000000001e4c1: add byte ptr [rax], al; add byte ptr [r15 - 0x48], sil; add dword ptr [rcx], eax; add byte ptr [rax], al; syscall; 
0x000000000001efc9: add byte ptr [rax], al; add byte ptr [r9 + rdx - 0x48], sil; add dword ptr [rcx], eax; add byte ptr [rax], al; syscall; 
0x000000000000be46: add byte ptr [rax], al; add byte ptr [rax + 0x29], cl; ret 0x8d48; 
0x000000000001eb42: add byte ptr [rax], al; add byte ptr [rax + 0x29], cl; ret 0xc148; 
0x00000000000142ee: add byte ptr [rax], al; add byte ptr [rax + 0x29], cl; ror byte ptr [rax - 0x73], 1; cmp eax, 0x1a66d; mov rbx, rax; call rcx; 
0x000000000001058b: add byte ptr [rax], al; add byte ptr [rax + 0x31ca0], al; add byte ptr [rdi - 0x2c517], bl; jmp qword ptr [rsi + 0xf]; 
0x000000000001a6a6: add byte ptr [rax], al; add byte ptr [rax + 0x39], cl; ret 0x860f; 
0x000000000001ee97: add byte ptr [rax], al; add byte ptr [rax + 0x48], bh; syscall; 
0x000000000000cc90: add byte ptr [rax], al; add byte ptr [rax + 0xca], bh; syscall; 
0x000000000001f495: add byte ptr [rax], al; add byte ptr [rax + 0xd], bh; syscall; 
0x0000000000022c3c: add byte ptr [rax], al; add byte ptr [rax - 0x73], cl; add al, 7; cmp byte ptr [rax], sil; cmovne rax, rdx; ret; 
0x000000000001d71d: add byte ptr [rax], al; add byte ptr [rax - 0x73], cl; add eax, 0x8977; ret; 
0x000000000001d6ed: add byte ptr [rax], al; add byte ptr [rax - 0x73], cl; add eax, 0x89be; ret; 
0x000000000001d72d: add byte ptr [rax], al; add byte ptr [rax - 0x73], cl; add eax, 0x89d5; ret; 
0x000000000001d6fd: add byte ptr [rax], al; add byte ptr [rax - 0x73], cl; add eax, 0x89e0; ret; 
0x000000000001d70d: add byte ptr [rax], al; add byte ptr [rax - 0x73], cl; add eax, 0x89e3; ret; 
0x000000000001d6dd: add byte ptr [rax], al; add byte ptr [rax - 0x73], cl; add eax, 0x89e8; ret; 
0x000000000001c83d: add byte ptr [rax], al; add byte ptr [rax - 0x75], cl; adc byte ptr [rax - 0x7d], cl; ret 0x4810; 
0x000000000000e64d: add byte ptr [rax], al; add byte ptr [rax - 0x75], cl; adc ecx, dword ptr [rcx - 0x75]; add ecx, dword ptr [rax - 0x7d]; ret; 
0x000000000001ac54: add byte ptr [rax], al; add byte ptr [rax - 0x75], cl; jl 0x1ac7f; clc; ret; 
0x000000000001d3d5: add byte ptr [rax], al; add byte ptr [rax - 0x75], cl; or byte ptr [rax - 0x7d], cl; ret 0x4808; 
0x000000000001c9bd: add byte ptr [rax], al; add byte ptr [rax - 0x75], cl; or byte ptr [rax - 0x7d], cl; ret 0xc610; 
0x0000000000012a24: add byte ptr [rax], al; add byte ptr [rax - 0x77], cl; and al, 0x18; call 0x12290; add rsp, 0xd8; ret; 
0x0000000000014f28: add byte ptr [rax], al; add byte ptr [rax - 0x77], cl; in eax, 0x48; mov esi, ebp; syscall; 
0x0000000000019fbd: add byte ptr [rax], al; add byte ptr [rax - 0x77], cl; ja 0x19fe4; ret; 
0x0000000000001cb4: add byte ptr [rax], al; add byte ptr [rax - 0x77], cl; mov qword ptr ss:[rsi + 0x10], rsi; syscall; 
0x00000000000143ad: add byte ptr [rax], al; add byte ptr [rax - 0x77], cl; ret 0x2948; 
0x00000000000113f5: add byte ptr [rax], al; add byte ptr [rax - 0x77], cl; ret 0x5958; 
0x000000000001d13d: add byte ptr [rax], al; add byte ptr [rax - 0x77], cl; ret 0x8348; 
0x000000000000d1ad: add byte ptr [rax], al; add byte ptr [rax - 0x77], cl; ret 0x8b48; 
0x0000000000001a1d: add byte ptr [rax], al; add byte ptr [rax - 0x77], cl; ret 0xc031; 
0x00000000000047aa: add byte ptr [rax], al; add byte ptr [rax - 0x77], cl; ret; 
0x000000000001dcf8: add byte ptr [rax], al; add byte ptr [rax - 0x77], cl; xlatb; xor r12d, r12d; call rsi; 
0x0000000000006aa3: add byte ptr [rax], al; add byte ptr [rax - 0x7d], cl; ret 0x4807; 
0x000000000001535d: add byte ptr [rax], al; add byte ptr [rax - 0x7d], cl; ret 0x4808; 
0x0000000000002177: add byte ptr [rax], al; add byte ptr [rax - 0x7d], cl; ret; 
0x000000000001df87: add byte ptr [rax], al; add byte ptr [rax - 1], bh; ret; 
0x000000000001e79b: add byte ptr [rax], al; add byte ptr [rax], al; add bh, dh; fmul dword ptr [rcx + 0x1099805]; add byte ptr [rax - 1], bh; ret; 
0x000000000001e4db: add byte ptr [rax], al; add byte ptr [rax], al; add bh, dh; fmul dword ptr [rcx + 0x10c5805]; add byte ptr [rax - 1], bh; ret; 
0x000000000001d71b: add byte ptr [rax], al; add byte ptr [rax], al; add byte ptr [rax - 0x73], cl; add eax, 0x8977; ret; 
0x000000000001d6eb: add byte ptr [rax], al; add byte ptr [rax], al; add byte ptr [rax - 0x73], cl; add eax, 0x89be; ret; 
0x000000000001d72b: add byte ptr [rax], al; add byte ptr [rax], al; add byte ptr [rax - 0x73], cl; add eax, 0x89d5; ret; 
0x000000000001d6fb: add byte ptr [rax], al; add byte ptr [rax], al; add byte ptr [rax - 0x73], cl; add eax, 0x89e0; ret; 
0x000000000001d70b: add byte ptr [rax], al; add byte ptr [rax], al; add byte ptr [rax - 0x73], cl; add eax, 0x89e3; ret; 
0x000000000001d6db: add byte ptr [rax], al; add byte ptr [rax], al; add byte ptr [rax - 0x73], cl; add eax, 0x89e8; ret; 
0x000000000001c83b: add byte ptr [rax], al; add byte ptr [rax], al; add byte ptr [rax - 0x75], cl; adc byte ptr [rax - 0x7d], cl; ret 0x4810; 
0x000000000000e64b: add byte ptr [rax], al; add byte ptr [rax], al; add byte ptr [rax - 0x75], cl; adc ecx, dword ptr [rcx - 0x75]; add ecx, dword ptr [rax - 0x7d]; ret; 
0x0000000000019fbb: add byte ptr [rax], al; add byte ptr [rax], al; add byte ptr [rax - 0x77], cl; ja 0x19fe4; ret; 
0x00000000000143ab: add byte ptr [rax], al; add byte ptr [rax], al; add byte ptr [rax - 0x77], cl; ret 0x2948; 
0x000000000001d13b: add byte ptr [rax], al; add byte ptr [rax], al; add byte ptr [rax - 0x77], cl; ret 0x8348; 
0x000000000000d1ab: add byte ptr [rax], al; add byte ptr [rax], al; add byte ptr [rax - 0x77], cl; ret 0x8b48; 
0x000000000001dcf6: add byte ptr [rax], al; add byte ptr [rax], al; add byte ptr [rax - 0x77], cl; xlatb; xor r12d, r12d; call rsi; 
0x000000000001535b: add byte ptr [rax], al; add byte ptr [rax], al; add byte ptr [rax - 0x7d], cl; ret 0x4808; 
0x0000000000009a5b: add byte ptr [rax], al; add byte ptr [rax], al; add byte ptr [rax - 0x7d], cl; ret; 
0x0000000000016c3b: add byte ptr [rax], al; add byte ptr [rax], al; add byte ptr [rcx + 0x3ec90], cl; add byte ptr [rax - 0x7d], cl; ror dword ptr [rax], 0x83; ret 0x4801; 
0x00000000000139c3: add byte ptr [rax], al; add byte ptr [rax], al; add byte ptr [rcx - 0x75], al; or byte ptr [rbp + rcx*4 + 0xc], cl; xor byte ptr [rcx + rcx*4 + 0xd], cl; ret 0x1b6; 
0x000000000001f79b: add byte ptr [rax], al; add byte ptr [rax], al; add byte ptr [rcx - 0x7d], cl; ret 0xf10; 
0x00000000000111eb: add byte ptr [rax], al; add byte ptr [rax], al; add byte ptr [rcx], dh; shr bl, 0xcf; nop dword ptr [rax]; call rax; 
0x000000000001c96b: add byte ptr [rax], al; add byte ptr [rax], al; add byte ptr [rdi], cl; mov bh, 0x42; or byte ptr [rax - 0x7d], cl; ret 0xc610; 
0x000000000002256b: add byte ptr [rax], al; add byte ptr [rax], al; add byte ptr [rdi], cl; mov esp, 0x448d48c0; cmp byte ptr [rax], dl; ret; 
0x000000000001f259: add byte ptr [rax], al; add byte ptr [rax], al; add byte ptr [rsi - 0x70], ah; endbr64; mov eax, 0x3f; syscall; 
0x000000000001f229: add byte ptr [rax], al; add byte ptr [rax], al; add byte ptr [rsi - 0x70], ah; endbr64; mov eax, 0xa; syscall; 
0x0000000000019f87: add byte ptr [rax], al; add byte ptr [rax], al; add rsp, 8; ret; 
0x000000000002255c: add byte ptr [rax], al; add byte ptr [rax], al; bsf eax, eax; add rax, rdi; ret; 
0x000000000002256c: add byte ptr [rax], al; add byte ptr [rax], al; bsf eax, eax; lea rax, [rax + rdi + 0x10]; ret; 
0x000000000002257c: add byte ptr [rax], al; add byte ptr [rax], al; bsf eax, eax; lea rax, [rax + rdi + 0x20]; ret; 
0x000000000001694c: add byte ptr [rax], al; add byte ptr [rax], al; call qword ptr [rbx]; 
0x0000000000014d7e: add byte ptr [rax], al; add byte ptr [rax], al; cmp rax, -1; cmove rax, rdx; ret; 
0x0000000000014404: add byte ptr [rax], al; add byte ptr [rax], al; cmp rax, r8; ja 0x14418; add rsp, 8; ret; 
0x000000000000114c: add byte ptr [rax], al; add byte ptr [rax], al; endbr64; add dword ptr [rdi + 4], 1; ret; 
0x000000000001edec: add byte ptr [rax], al; add byte ptr [rax], al; endbr64; mov eax, 0x15; syscall; 
0x000000000001f1fc: add byte ptr [rax], al; add byte ptr [rax], al; endbr64; mov eax, 0xb; syscall; 
0x000000000001ee1c: add byte ptr [rax], al; add byte ptr [rax], al; endbr64; mov eax, 3; syscall; 
0x000000000001517c: add byte ptr [rax], al; add byte ptr [rax], al; endbr64; mov eax, dword ptr [rip + 0x19fb6]; pop rbx; ret; 
0x000000000001f04c: add byte ptr [rax], al; add byte ptr [rax], al; endbr64; mov r10, rcx; mov eax, 0x11; syscall; 
0x000000000001abec: add byte ptr [rax], al; add byte ptr [rax], al; endbr64; mov rax, qword ptr [rax + 8]; sub rax, qword ptr fs:[0]; ret; 
0x00000000000121dc: add byte ptr [rax], al; add byte ptr [rax], al; endbr64; ret; 
0x000000000000115c: add byte ptr [rax], al; add byte ptr [rax], al; endbr64; sub dword ptr [rdi + 4], 1; ret; 
0x000000000001f01c: add byte ptr [rax], al; add byte ptr [rax], al; endbr64; xor eax, eax; syscall; 
0x0000000000022c3b: add byte ptr [rax], al; add byte ptr [rax], al; lea rax, [rdi + rax]; cmp byte ptr [rax], sil; cmovne rax, rdx; ret; 
0x000000000001d71c: add byte ptr [rax], al; add byte ptr [rax], al; lea rax, [rip + 0x8977]; ret; 
0x000000000001d6ec: add byte ptr [rax], al; add byte ptr [rax], al; lea rax, [rip + 0x89be]; ret; 
0x000000000001d72c: add byte ptr [rax], al; add byte ptr [rax], al; lea rax, [rip + 0x89d5]; ret; 
0x000000000001d6fc: add byte ptr [rax], al; add byte ptr [rax], al; lea rax, [rip + 0x89e0]; ret; 
0x000000000001d70c: add byte ptr [rax], al; add byte ptr [rax], al; lea rax, [rip + 0x89e3]; ret; 
0x000000000001d6dc: add byte ptr [rax], al; add byte ptr [rax], al; lea rax, [rip + 0x89e8]; ret; 
0x000000000001edac: add byte ptr [rax], al; add byte ptr [rax], al; mov dword ptr [rip + 0x10386], 0x16; mov eax, 0xffffffff; ret; 
0x000000000001ed5c: add byte ptr [rax], al; add byte ptr [rax], al; mov dword ptr [rip + 0x103d6], 0x16; mov eax, 0xffffffff; ret; 
0x000000000001ed0c: add byte ptr [rax], al; add byte ptr [rax], al; mov dword ptr [rip + 0x10426], 0x16; mov eax, 0xffffffff; ret; 
0x000000000001f5ac: add byte ptr [rax], al; add byte ptr [rax], al; mov dword ptr [rip + 0xfb86], 0x16; mov eax, 0xffffffff; ret; 
0x000000000001f194: add byte ptr [rax], al; add byte ptr [rax], al; mov dword ptr [rip + 0xff9e], 0x16; mov rax, -1; ret; 
0x0000000000019fbc: add byte ptr [rax], al; add byte ptr [rax], al; mov qword ptr [rdi + 0x20], rsi; ret; 
0x000000000001ddb5: add byte ptr [rax], al; add byte ptr [rax], al; mov qword ptr [rip + 0x11340], r8; call rsi; 
0x000000000001ac53: add byte ptr [rax], al; add byte ptr [rax], al; mov rdi, qword ptr [rsp - 8]; ret; 
0x000000000001dcf7: add byte ptr [rax], al; add byte ptr [rax], al; mov rdi, rdx; xor r12d, r12d; call rsi; 
0x000000000001e9a2: add byte ptr [rax], al; add byte ptr [rax], al; movups xmmword ptr [rbx + 0x38], xmm0; pop rbx; ret; 
0x0000000000019279: add byte ptr [rax], al; add byte ptr [rax], al; movups xmmword ptr [rbx], xmm0; pop rbx; ret; 
0x000000000002229c: add byte ptr [rax], al; add byte ptr [rax], al; movzx ecx, byte ptr [rsi]; movzx eax, byte ptr [rdi]; sub eax, ecx; ret; 
0x000000000001f06c: add byte ptr [rax], al; add byte ptr [rax], al; neg eax; mov dword ptr [rip + 0x100c8], eax; mov rax, -1; ret; 
0x000000000001f034: add byte ptr [rax], al; add byte ptr [rax], al; neg eax; mov dword ptr [rip + 0x10100], eax; mov rax, -1; ret; 
0x000000000001e79c: add byte ptr [rax], al; add byte ptr [rax], al; neg eax; mov dword ptr [rip + 0x10998], eax; mov eax, 0xffffffff; ret; 
0x000000000001e4dc: add byte ptr [rax], al; add byte ptr [rax], al; neg eax; mov dword ptr [rip + 0x10c58], eax; mov eax, 0xffffffff; ret; 
0x000000000001adf7: add byte ptr [rax], al; add byte ptr [rax], al; nop dword ptr [rax + rax]; endbr64; lea rax, [rip + 0x1287d]; ret; 
0x00000000000227a9: add byte ptr [rax], al; add byte ptr [rax], al; nop dword ptr [rax]; bsf eax, eax; lea rax, [rax + rdi - 0x10]; ret; 
0x000000000001df38: add byte ptr [rax], al; add byte ptr [rax], al; nop dword ptr [rax]; endbr64; mov eax, 0xc; syscall; 
0x000000000001f3d8: add byte ptr [rax], al; add byte ptr [rax], al; nop dword ptr [rax]; mov rax, 0xf; syscall; 
0x000000000001f25a: add byte ptr [rax], al; add byte ptr [rax], al; nop; endbr64; mov eax, 0x3f; syscall; 
0x000000000001f22a: add byte ptr [rax], al; add byte ptr [rax], al; nop; endbr64; mov eax, 0xa; syscall; 
0x000000000000d72c: add byte ptr [rax], al; add byte ptr [rax], al; or byte ptr [rbp + 0x31d], 4; xor eax, eax; pop rbp; ret; 
0x000000000001516a: add byte ptr [rax], al; add byte ptr [rax], al; pop rbx; or dword ptr [rip + 0x19e22], 1; ret; 
0x000000000001697c: add byte ptr [rax], al; add byte ptr [rax], al; pop rbx; pop rbp; pop r12; ret; 
0x000000000001227c: add byte ptr [rax], al; add byte ptr [rax], al; ret; 
0x000000000001deb0: add byte ptr [rax], al; add byte ptr [rax], al; ud2; mov rax, qword ptr [rbx + 0x10]; add rax, qword ptr [r14]; call rax; 
0x000000000001d647: add byte ptr [rax], al; add byte ptr [rax], al; xor eax, eax; ret; 
0x000000000001eaa3: add byte ptr [rax], al; add byte ptr [rbp + 0x41], bl; pop rsp; ret; 
0x000000000001a626: add byte ptr [rax], al; add byte ptr [rbp + rdx + 0x48], dh; test edx, edx; je 0x1a640; lea rdi, [rcx + rsi + 0x20]; jmp rdx; 
0x000000000001eebd: add byte ptr [rax], al; add byte ptr [rbx + 0x2b0247c], al; mov eax, dword ptr [rsp - 0x4c]; jne 0x1ee89; neg eax; ret; 
0x000000000001ef1d: add byte ptr [rax], al; add byte ptr [rbx + 0x2f8247c], al; mov eax, dword ptr [rsp - 4]; jne 0x1eee8; neg eax; ret; 
0x00000000000048c1: add byte ptr [rax], al; add byte ptr [rbx + 0x440ffff8], al; ret 0x589; 
0x000000000001697d: add byte ptr [rax], al; add byte ptr [rbx + 0x5d], bl; pop r12; ret; 
0x0000000000016a13: add byte ptr [rax], al; add byte ptr [rbx + 0x5d], bl; ret; 
0x0000000000017472: add byte ptr [rax], al; add byte ptr [rcx + 0x1c383d8], cl; shl rax, 4; lea rdi, [r12 + rax + 0x480]; call rcx; 
0x0000000000016d25: add byte ptr [rax], al; add byte ptr [rcx + 0x39], al; ret 0x4076; 
0x0000000000012d65: add byte ptr [rax], al; add byte ptr [rcx + 0x39], al; ret; 
0x0000000000016c3d: add byte ptr [rax], al; add byte ptr [rcx + 0x3ec90], cl; add byte ptr [rax - 0x7d], cl; ror dword ptr [rax], 0x83; ret 0x4801; 
0x000000000001d082: add byte ptr [rax], al; add byte ptr [rcx + 0x48d48c6], cl; jbe 0x1d09b; mov dh, 0x44; ret; 
0x0000000000014016: add byte ptr [rax], al; add byte ptr [rcx + rax - 0x10], dh; inc dword ptr [r8 + 0x10]; pop rbx; pop rbp; ret; 
0x00000000000045cf: add byte ptr [rax], al; add byte ptr [rcx + rcx*2 + 0xf], dh; xor dword ptr [rax - 0x77], ecx; ret; 
0x000000000001e5cf: add byte ptr [rax], al; add byte ptr [rcx + rcx*4 - 0x20], cl; pop rbx; pop rbp; pop r12; ret; 
0x0000000000014405: add byte ptr [rax], al; add byte ptr [rcx + rdi - 0x40], cl; ja 0x14418; add rsp, 8; ret; 
0x0000000000011745: add byte ptr [rax], al; add byte ptr [rcx - 0x39], cl; ret 0xffff; 
0x0000000000005edb: add byte ptr [rax], al; add byte ptr [rcx - 0x3f], cl; out 4, al; lea rdx, [r13 + r14 + 8]; call rcx; 
0x000000000000f5ed: add byte ptr [rax], al; add byte ptr [rcx - 0x4db7b], cl; jmp qword ptr [rsi + 0x2e]; 
0x00000000000139c5: add byte ptr [rax], al; add byte ptr [rcx - 0x75], al; or byte ptr [rbp + rcx*4 + 0xc], cl; xor byte ptr [rcx + rcx*4 + 0xd], cl; ret 0x1b6; 
0x000000000001705b: add byte ptr [rax], al; add byte ptr [rcx - 0x77], cl; ret; 
0x000000000001f79d: add byte ptr [rax], al; add byte ptr [rcx - 0x7d], cl; ret 0xf10; 
0x000000000000228d: add byte ptr [rax], al; add byte ptr [rcx - 0x80], al; stc; or cl, byte ptr [rdi]; test dword ptr [rdi + rdi*8 - 1], eax; jmp qword ptr [rsi + 0xf]; 
0x000000000000ef13: add byte ptr [rax], al; add byte ptr [rcx - 0x8f63], cl; dec dword ptr [rax - 0x77]; ret; 
0x0000000000022814: add byte ptr [rax], al; add byte ptr [rcx - 9], cl; ret 1; 
0x000000000002283a: add byte ptr [rax], al; add byte ptr [rcx - 9], cl; ret 2; 
0x000000000001eabe: add byte ptr [rax], al; add byte ptr [rcx], dh; rcr byte ptr [rbp + 0x41], 0x5c; ret; 
0x000000000002251a: add byte ptr [rax], al; add byte ptr [rcx], dh; rol bl, 0x83; ret 0x6620; 
0x00000000000111ed: add byte ptr [rax], al; add byte ptr [rcx], dh; shr bl, 0xcf; nop dword ptr [rax]; call rax; 
0x00000000000046c3: add byte ptr [rax], al; add byte ptr [rdi + 0x1002], bh; mov qword ptr [rbx + 0x10], rbx; syscall; 
0x000000000001e9a3: add byte ptr [rax], al; add byte ptr [rdi], cl; adc dword ptr [rbx + 0x38], eax; pop rbx; ret; 
0x000000000001927a: add byte ptr [rax], al; add byte ptr [rdi], cl; adc dword ptr [rbx], eax; pop rbx; ret; 
0x000000000001b01d: add byte ptr [rax], al; add byte ptr [rdi], cl; add eax, 0x850fc085; ret; 
0x000000000001c96d: add byte ptr [rax], al; add byte ptr [rdi], cl; mov bh, 0x42; or byte ptr [rax - 0x7d], cl; ret 0xc610; 
0x000000000002229d: add byte ptr [rax], al; add byte ptr [rdi], cl; mov dh, 0xe; movzx eax, byte ptr [rdi]; sub eax, ecx; ret; 
0x000000000002257d: add byte ptr [rax], al; add byte ptr [rdi], cl; mov esp, 0x448d48c0; cmp byte ptr [rax], ah; ret; 
0x000000000002256d: add byte ptr [rax], al; add byte ptr [rdi], cl; mov esp, 0x448d48c0; cmp byte ptr [rax], dl; ret; 
0x000000000002258d: add byte ptr [rax], al; add byte ptr [rdi], cl; mov esp, 0xc22948c0; jbe 0x225d0; add rax, rdi; ret; 
0x000000000002255d: add byte ptr [rax], al; add byte ptr [rdi], cl; mov esp, 0xf80148c0; ret; 
0x0000000000016e50: add byte ptr [rax], al; add byte ptr [rdi], cl; xchg eax, esp; ror byte ptr [rdi], 0x94; ret 0x348; 
0x000000000001e4bc: add byte ptr [rax], al; add byte ptr [rip + 0x410000], dil; je 0x1e4ee; mov eax, 0x101; syscall; 
0x000000000001efc4: add byte ptr [rax], al; add byte ptr [rip + 0x410000], dil; je 0x1efe0; mov eax, 0x101; syscall; 
0x000000000000cc8b: add byte ptr [rax], al; add byte ptr [rsi + 0x81], bh; mov eax, 0xca; syscall; 
0x0000000000013935: add byte ptr [rax], al; add byte ptr [rsi + 0xf], ah; outsd dx, dword ptr [rsi]; xchg eax, ebp; cmp ch, 0xff; jmp qword ptr [rsi + 0xf]; 
0x0000000000022482: add byte ptr [rax], al; add byte ptr [rsi + 0xf], ah; xlatb; ret 0xc085; 
0x000000000001f25b: add byte ptr [rax], al; add byte ptr [rsi - 0x70], ah; endbr64; mov eax, 0x3f; syscall; 
0x000000000001f22b: add byte ptr [rax], al; add byte ptr [rsi - 0x70], ah; endbr64; mov eax, 0xa; syscall; 
0x000000000001bf43: add byte ptr [rax], al; add cl, ch; cmc; idiv bh; jmp qword ptr [rsi - 0x7f]; 
0x0000000000017e77: add byte ptr [rax], al; add dh, dh; add eax, 0x1579f; jne 0x17e88; ret; 
0x0000000000003051: add byte ptr [rax], al; add dh, dh; ret 0x7404; 
0x0000000000007d03: add byte ptr [rax], al; add ebx, 1; shl rax, 4; lea rdi, [r14 + rax + 0xe08]; call rdx; 
0x0000000000007cbe: add byte ptr [rax], al; add ebx, 1; shl rax, 4; lea rdi, [r15 + rax + 0x480]; call rdx; 
0x0000000000017acd: add byte ptr [rax], al; add r12d, 1; shl rax, 4; lea rdi, [r13 + rax + 0x480]; call rcx; 
0x0000000000017d48: add byte ptr [rax], al; add r12d, 1; shl rax, 4; lea rdi, [rdi + rax + 0xe08]; call rcx; 
0x0000000000022333: add byte ptr [rax], al; add rax, rdi; add rax, rcx; ret; 
0x000000000001e810: add byte ptr [rax], al; add rsp, 0x98; ret; 
0x000000000001eab8: add byte ptr [rax], al; add rsp, 0x98; xor eax, eax; pop rbp; pop r12; ret; 
0x000000000001ecaf: add byte ptr [rax], al; add rsp, 0xc8; ret; 
0x0000000000012be3: add byte ptr [rax], al; add rsp, 8; pop rbx; pop rbp; ret; 
0x0000000000019f89: add byte ptr [rax], al; add rsp, 8; ret; 
0x000000000001d5ae: add byte ptr [rax], al; add rsp, 8; xor eax, eax; pop rbx; pop rbp; ret; 
0x00000000000012d9: add byte ptr [rax], al; and byte ptr [rdi], cl; xchg eax, ebp; ret 0x3145; 
0x000000000002255e: add byte ptr [rax], al; bsf eax, eax; add rax, rdi; ret; 
0x000000000002256e: add byte ptr [rax], al; bsf eax, eax; lea rax, [rax + rdi + 0x10]; ret; 
0x000000000002257e: add byte ptr [rax], al; bsf eax, eax; lea rax, [rax + rdi + 0x20]; ret; 
0x000000000002258e: add byte ptr [rax], al; bsf eax, eax; sub rdx, rax; jbe 0x225d0; add rax, rdi; ret; 
0x0000000000023060: add byte ptr [rax], al; bsf rax, rdx; ret; 
0x0000000000020a1e: add byte ptr [rax], al; bsf rdx, rdx; movzx ecx, byte ptr [rsi + rdx]; movzx eax, byte ptr [rdi + rdx]; sub eax, ecx; ret; 
0x000000000001e802: add byte ptr [rax], al; call 0x1ee50; cmp eax, -1; je 0x1e8e8; add rsp, 0x98; ret; 
0x000000000001694e: add byte ptr [rax], al; call qword ptr [rbx]; 
0x0000000000005b83: add byte ptr [rax], al; call rax; 
0x0000000000017484: add byte ptr [rax], al; call rcx; 
0x0000000000005103: add byte ptr [rax], al; call rdx; 
0x00000000000120b5: add byte ptr [rax], al; call rsi; 
0x000000000000f50b: add byte ptr [rax], al; cmove edx, eax; call 0xa460; mov qword ptr [rbx + 0x20], rax; pop rbx; ret; 
0x000000000001eebe: add byte ptr [rax], al; cmp dword ptr [rsp - 0x50], 2; mov eax, dword ptr [rsp - 0x4c]; jne 0x1ee89; neg eax; ret; 
0x000000000001ef1e: add byte ptr [rax], al; cmp dword ptr [rsp - 8], 2; mov eax, dword ptr [rsp - 4]; jne 0x1eee8; neg eax; ret; 
0x000000000001e807: add byte ptr [rax], al; cmp eax, -1; je 0x1e8e8; add rsp, 0x98; ret; 
0x0000000000014d80: add byte ptr [rax], al; cmp rax, -1; cmove rax, rdx; ret; 
0x0000000000014406: add byte ptr [rax], al; cmp rax, r8; ja 0x14418; add rsp, 8; ret; 
0x00000000000235a0: add byte ptr [rax], al; cmp rdx, 0x20; ja 0x235b3; movdqu xmmword ptr [rdi + rdx - 0x10], xmm0; movdqu xmmword ptr [rdi], xmm0; ret; 
0x000000000000114e: add byte ptr [rax], al; endbr64; add dword ptr [rdi + 4], 1; ret; 
0x000000000001adfe: add byte ptr [rax], al; endbr64; lea rax, [rip + 0x1287d]; ret; 
0x000000000001edee: add byte ptr [rax], al; endbr64; mov eax, 0x15; syscall; 
0x000000000001f2de: add byte ptr [rax], al; endbr64; mov eax, 0x27; syscall; 
0x000000000001f2de: add byte ptr [rax], al; endbr64; mov eax, 0x27; syscall; ret; 
0x000000000001f1fe: add byte ptr [rax], al; endbr64; mov eax, 0xb; syscall; 
0x000000000001ee1e: add byte ptr [rax], al; endbr64; mov eax, 3; syscall; 
0x000000000001517e: add byte ptr [rax], al; endbr64; mov eax, dword ptr [rip + 0x19fb6]; pop rbx; ret; 
0x000000000001f04e: add byte ptr [rax], al; endbr64; mov r10, rcx; mov eax, 0x11; syscall; 
0x000000000001abee: add byte ptr [rax], al; endbr64; mov rax, qword ptr [rax + 8]; sub rax, qword ptr fs:[0]; ret; 
0x000000000001d5fe: add byte ptr [rax], al; endbr64; mov rcx, qword ptr [rip + 0x11add]; cmp rcx, rdi; je 0x1d618; ret; 
0x00000000000121de: add byte ptr [rax], al; endbr64; ret; 
0x000000000000115e: add byte ptr [rax], al; endbr64; sub dword ptr [rdi + 4], 1; ret; 
0x000000000001f01e: add byte ptr [rax], al; endbr64; xor eax, eax; syscall; 
0x0000000000014017: add byte ptr [rax], al; je 0x1401c; lock inc dword ptr [r8 + 0x10]; pop rbx; pop rbp; ret; 
0x000000000001a627: add byte ptr [rax], al; je 0x1a640; test rdx, rdx; je 0x1a640; lea rdi, [rcx + rsi + 0x20]; jmp rdx; 
0x000000000000cd0a: add byte ptr [rax], al; je 0xcf01; lea rdi, [rip + 0x21c4f]; call rdx; 
0x0000000000014469: add byte ptr [rax], al; jne 0x14480; mov r8, qword ptr [rip + 0x1ab2c]; mov rax, r8; ret; 
0x000000000000d130: add byte ptr [rax], al; lea rax, [rax + rdx*4]; mov dword ptr [rdi + 0x2f4], edx; mov qword ptr [rdi + 0x308], rax; ret; 
0x000000000000d0fe: add byte ptr [rax], al; lea rax, [rax + rdx*4]; mov dword ptr [rdi + 0x2fc], ecx; mov qword ptr [rdi + 0x310], rax; ret; 
0x0000000000022c3d: add byte ptr [rax], al; lea rax, [rdi + rax]; cmp byte ptr [rax], sil; cmovne rax, rdx; ret; 
0x000000000001d71e: add byte ptr [rax], al; lea rax, [rip + 0x8977]; ret; 
0x000000000001d6ee: add byte ptr [rax], al; lea rax, [rip + 0x89be]; ret; 
0x000000000001d72e: add byte ptr [rax], al; lea rax, [rip + 0x89d5]; ret; 
0x000000000001d6fe: add byte ptr [rax], al; lea rax, [rip + 0x89e0]; ret; 
0x000000000001d70e: add byte ptr [rax], al; lea rax, [rip + 0x89e3]; ret; 
0x000000000001d6de: add byte ptr [rax], al; lea rax, [rip + 0x89e8]; ret; 
0x0000000000014f1d: add byte ptr [rax], al; lea rdi, [rip + 0x10a86]; mov eax, 0x59; mov rbp, rsp; mov rsi, rbp; syscall; 
0x000000000000cd10: add byte ptr [rax], al; lea rdi, [rip + 0x21c4f]; call rdx; 
0x000000000001ee8e: add byte ptr [rax], al; lea rdx, [rsp - 0x50]; mov esi, 0x10; mov eax, 0x48; syscall; 
0x000000000001eeee: add byte ptr [rax], al; lea rdx, [rsp - 8]; mov esi, 0x10; mov eax, 0x48; syscall; 
0x000000000001af99: add byte ptr [rax], al; lea rsi, [rip + 0x13fde]; mov edi, 0x3005; mov eax, 0x9e; syscall; 
0x000000000001edae: add byte ptr [rax], al; mov dword ptr [rip + 0x10386], 0x16; mov eax, 0xffffffff; ret; 
0x000000000001ed5e: add byte ptr [rax], al; mov dword ptr [rip + 0x103d6], 0x16; mov eax, 0xffffffff; ret; 
0x000000000001ed0e: add byte ptr [rax], al; mov dword ptr [rip + 0x10426], 0x16; mov eax, 0xffffffff; ret; 
0x000000000001e967: add byte ptr [rax], al; mov dword ptr [rip + 0x107cd], 0x16; mov eax, 0xffffffff; ret; 
0x000000000001f5ae: add byte ptr [rax], al; mov dword ptr [rip + 0xfb86], 0x16; mov eax, 0xffffffff; ret; 
0x000000000001f196: add byte ptr [rax], al; mov dword ptr [rip + 0xff9e], 0x16; mov rax, -1; ret; 
0x000000000001d6c8: add byte ptr [rax], al; mov dword ptr [rsi - 7], 0x6f727245; mov word ptr [rax + 4], dx; ret; 
0x000000000001a585: add byte ptr [rax], al; mov eax, 0x15; syscall; 
0x000000000001ee98: add byte ptr [rax], al; mov eax, 0x48; syscall; 
0x000000000001afa5: add byte ptr [rax], al; mov eax, 0x9e; syscall; 
0x000000000000cc91: add byte ptr [rax], al; mov eax, 0xca; syscall; 
0x000000000001f496: add byte ptr [rax], al; mov eax, 0xd; syscall; 
0x000000000001df88: add byte ptr [rax], al; mov eax, 0xffffffff; ret; 
0x0000000000017473: add byte ptr [rax], al; mov eax, ebx; add ebx, 1; shl rax, 4; lea rdi, [r12 + rax + 0x480]; call rcx; 
0x000000000001dcde: add byte ptr [rax], al; mov eax, r12d; pop r12; ret; 
0x000000000001f574: add byte ptr [rax], al; mov eax, r9d; add rsp, 0xd0; ret; 
0x00000000000046c4: add byte ptr [rax], al; mov edi, 0x1002; mov qword ptr [rbx + 0x10], rbx; syscall; 
0x0000000000005b7e: add byte ptr [rax], al; mov edi, 1; call rax; 
0x000000000001f2a6: add byte ptr [rax], al; mov edi, edx; mov eax, esi; syscall; 
0x000000000000cc8c: add byte ptr [rax], al; mov esi, 0x81; mov eax, 0xca; syscall; 
0x000000000001a026: add byte ptr [rax], al; mov qword ptr [rax + 0x20], rsi; ret; 
0x000000000000229e: add byte ptr [rax], al; mov qword ptr [rbp - 0x60], rsi; mov qword ptr [rbp - 0x58], rdx; mov qword ptr [rbp - 0x50], rcx; mov qword ptr [rbp - 0x48], rdi; call rax; 
0x00000000000046c9: add byte ptr [rax], al; mov qword ptr [rbx + 0x10], rbx; syscall; 
0x00000000000012e7: add byte ptr [rax], al; mov qword ptr [rbx + 0x18], rax; pop rbx; ret; 
0x0000000000019fbe: add byte ptr [rax], al; mov qword ptr [rdi + 0x20], rsi; ret; 
0x000000000000d13a: add byte ptr [rax], al; mov qword ptr [rdi + 0x308], rax; ret; 
0x000000000000d108: add byte ptr [rax], al; mov qword ptr [rdi + 0x310], rax; ret; 
0x000000000001ddb7: add byte ptr [rax], al; mov qword ptr [rip + 0x11340], r8; call rsi; 
0x000000000001d62e: add byte ptr [rax], al; mov qword ptr [rip + 0x11ac1], rax; add rsp, 8; ret; 
0x0000000000019f7e: add byte ptr [rax], al; mov qword ptr [rip + 0x1514d], 0; add rsp, 8; ret; 
0x0000000000001ca9: add byte ptr [rax], al; mov qword ptr [rip + 0x2d31e], rax; mov eax, 0x9e; mov qword ptr [rsi], rsi; mov qword ptr [rsi + 0x10], rsi; syscall; 
0x0000000000001cb5: add byte ptr [rax], al; mov qword ptr [rsi], rsi; mov qword ptr [rsi + 0x10], rsi; syscall; 
0x0000000000012a25: add byte ptr [rax], al; mov qword ptr [rsp + 0x18], rax; call 0x12290; add rsp, 0xd8; ret; 
0x000000000001ee6e: add byte ptr [rax], al; mov qword ptr [rsp - 0x38], rax; cmp esi, 9; je 0x1ee90; mov eax, 0x48; syscall; 
0x000000000001f1a0: add byte ptr [rax], al; mov rax, -1; ret; 
0x0000000000005b6e: add byte ptr [rax], al; mov rax, qword ptr [rbp - 0x150]; test rax, rax; je 0x5dca; mov edi, 1; call rax; 
0x000000000001e5d0: add byte ptr [rax], al; mov rax, r12; pop rbx; pop rbp; pop r12; ret; 
0x0000000000014f29: add byte ptr [rax], al; mov rbp, rsp; mov rsi, rbp; syscall; 
0x000000000001ac55: add byte ptr [rax], al; mov rdi, qword ptr [rsp - 8]; ret; 
0x000000000001dcf9: add byte ptr [rax], al; mov rdi, rdx; xor r12d, r12d; call rsi; 
0x0000000000011b8e: add byte ptr [rax], al; mov rdx, r13; mov rsi, r12; mov edi, ebp; call qword ptr [rbx]; 
0x0000000000007aec: add byte ptr [rax], al; mov rdx, r14; call rcx; 
0x000000000001c26e: add byte ptr [rax], al; movabs rdx, 0x697373696d726570; cmp qword ptr [rax], rdx; je 0x1c2a0; ret; 
0x000000000001c2fe: add byte ptr [rax], al; movabs rdx, 0x697373696d726570; cmp qword ptr [rax], rdx; je 0x1c330; ret; 
0x000000000001dcd4: add byte ptr [rax], al; movups xmmword ptr [rax], xmm0; add rsp, 0x110; mov eax, r12d; pop r12; ret; 
0x000000000001e9a4: add byte ptr [rax], al; movups xmmword ptr [rbx + 0x38], xmm0; pop rbx; ret; 
0x000000000001927b: add byte ptr [rax], al; movups xmmword ptr [rbx], xmm0; pop rbx; ret; 
0x000000000002229e: add byte ptr [rax], al; movzx ecx, byte ptr [rsi]; movzx eax, byte ptr [rdi]; sub eax, ecx; ret; 
0x000000000001f219: add byte ptr [rax], al; neg eax; mov dword ptr [rcx], eax; or rax, 0xffffffffffffffff; ret; 
0x000000000001f06e: add byte ptr [rax], al; neg eax; mov dword ptr [rip + 0x100c8], eax; mov rax, -1; ret; 
0x000000000001f036: add byte ptr [rax], al; neg eax; mov dword ptr [rip + 0x10100], eax; mov rax, -1; ret; 
0x000000000001f006: add byte ptr [rax], al; neg eax; mov dword ptr [rip + 0x10130], eax; mov eax, 0xffffffff; ret; 
0x000000000001ef9e: add byte ptr [rax], al; neg eax; mov dword ptr [rip + 0x10198], eax; mov eax, 0xffffffff; ret; 
0x000000000001ed96: add byte ptr [rax], al; neg eax; mov dword ptr [rip + 0x103a0], eax; mov eax, 0xffffffff; ret; 
0x000000000001ed46: add byte ptr [rax], al; neg eax; mov dword ptr [rip + 0x103f0], eax; mov eax, 0xffffffff; ret; 
0x000000000001ecf6: add byte ptr [rax], al; neg eax; mov dword ptr [rip + 0x10440], eax; mov eax, 0xffffffff; ret; 
0x000000000001e79e: add byte ptr [rax], al; neg eax; mov dword ptr [rip + 0x10998], eax; mov eax, 0xffffffff; ret; 
0x000000000001e4de: add byte ptr [rax], al; neg eax; mov dword ptr [rip + 0x10c58], eax; mov eax, 0xffffffff; ret; 
0x000000000001adf9: add byte ptr [rax], al; nop dword ptr [rax + rax]; endbr64; lea rax, [rip + 0x1287d]; ret; 
0x00000000000227ab: add byte ptr [rax], al; nop dword ptr [rax]; bsf eax, eax; lea rax, [rax + rdi - 0x10]; ret; 
0x000000000001df3a: add byte ptr [rax], al; nop dword ptr [rax]; endbr64; mov eax, 0xc; syscall; 
0x000000000001f3da: add byte ptr [rax], al; nop dword ptr [rax]; mov rax, 0xf; syscall; 
0x0000000000020a3b: add byte ptr [rax], al; nop dword ptr [rax]; movzx ecx, byte ptr [rsi]; movzx eax, byte ptr [rdi]; sub eax, ecx; ret; 
0x00000000000121d4: add byte ptr [rax], al; nop word ptr cs:[rax + rax]; endbr64; ret; 
0x000000000001f25c: add byte ptr [rax], al; nop; endbr64; mov eax, 0x3f; syscall; 
0x000000000001f22c: add byte ptr [rax], al; nop; endbr64; mov eax, 0xa; syscall; 
0x000000000001f143: add byte ptr [rax], al; or al, 0; add byte ptr [rax], al; pop rbp; pop r12; ret; 
0x000000000000d72e: add byte ptr [rax], al; or byte ptr [rbp + 0x31d], 4; xor eax, eax; pop rbp; ret; 
0x00000000000224a9: add byte ptr [rax], al; pmovmskb eax, xmm1; bsf eax, eax; lea rax, [rdi + rax + 0x30]; ret; 
0x000000000001eaa4: add byte ptr [rax], al; pop rbp; pop r12; ret; 
0x000000000001516c: add byte ptr [rax], al; pop rbx; or dword ptr [rip + 0x19e22], 1; ret; 
0x000000000001697e: add byte ptr [rax], al; pop rbx; pop rbp; pop r12; ret; 
0x0000000000016a14: add byte ptr [rax], al; pop rbx; pop rbp; ret; 
0x000000000001c529: add byte ptr [rax], al; pop rbx; ret; 
0x000000000001f5f7: add byte ptr [rax], al; pop rdx; xor eax, eax; pop rbp; pop r12; ret; 
0x0000000000006903: add byte ptr [rax], al; ret; 
0x0000000000005edc: add byte ptr [rax], al; shl r14, 4; lea rdx, [r13 + r14 + 8]; call rcx; 
0x00000000000142ef: add byte ptr [rax], al; sub rax, rdx; lea rdi, [rip + 0x1a66d]; mov rbx, rax; call rcx; 
0x0000000000023371: add byte ptr [rax], al; sub rax, rdx; ret; 
0x000000000000cc96: add byte ptr [rax], al; syscall; 
0x000000000001e4ca: add byte ptr [rax], al; syscall; cmp rax, -0x1000; ja 0x1e4e0; ret; 
0x000000000001e78b: add byte ptr [rax], al; syscall; cmp rax, -0x1000; ja 0x1e7a0; ret; 
0x000000000001eaf7: add byte ptr [rax], al; syscall; cmp rax, -0x1000; ja 0x1eb08; ret; 
0x000000000001ece6: add byte ptr [rax], al; syscall; cmp rax, -0x1000; ja 0x1ecf8; ret; 
0x000000000001ed35: add byte ptr [rax], al; syscall; cmp rax, -0x1000; ja 0x1ed48; ret; 
0x000000000001ed86: add byte ptr [rax], al; syscall; cmp rax, -0x1000; ja 0x1ed98; ret; 
0x000000000001edc7: add byte ptr [rax], al; syscall; cmp rax, -0x1000; ja 0x1edd8; ret; 
0x000000000001edf7: add byte ptr [rax], al; syscall; cmp rax, -0x1000; ja 0x1ee08; ret; 
0x000000000001ee27: add byte ptr [rax], al; syscall; cmp rax, -0x1000; ja 0x1ee38; ret; 
0x000000000001ee7d: add byte ptr [rax], al; syscall; cmp rax, -0x1000; ja 0x1eea8; ret; 
0x000000000001eedc: add byte ptr [rax], al; syscall; cmp rax, -0x1000; ja 0x1ef08; ret; 
0x000000000001ef64: add byte ptr [rax], al; syscall; cmp rax, -0x1000; ja 0x1efa0; ret; 
0x000000000001efd2: add byte ptr [rax], al; syscall; cmp rax, -0x1000; ja 0x1f008; ret; 
0x000000000001f05a: add byte ptr [rax], al; syscall; cmp rax, -0x1000; ja 0x1f070; ret; 
0x000000000001f087: add byte ptr [rax], al; syscall; cmp rax, -0x1000; ja 0x1f098; ret; 
0x000000000001f207: add byte ptr [rax], al; syscall; cmp rax, -0xfff; jae 0x1f214; ret; 
0x000000000001f237: add byte ptr [rax], al; syscall; cmp rax, -0xfff; jae 0x1f244; ret; 
0x000000000001f267: add byte ptr [rax], al; syscall; cmp rax, -0xfff; jae 0x1f274; ret; 
0x0000000000023667: add byte ptr [rax], al; syscall; cmp rax, -0xfff; jae 0x23674; ret; 
0x000000000001f2e7: add byte ptr [rax], al; syscall; ret; 
0x0000000000017e78: add byte ptr [rax], al; test byte ptr [rip + 0x1579f], 0x40; jne 0x17e88; ret; 
0x0000000000011f7d: add byte ptr [rax], al; test rax, rax; je 0x11f8d; mov rax, qword ptr [rax + 8]; add rax, qword ptr [r15]; call rax; 
0x000000000001deb2: add byte ptr [rax], al; ud2; mov rax, qword ptr [rbx + 0x10]; add rax, qword ptr [r14]; call rax; 
0x000000000001eabf: add byte ptr [rax], al; xor eax, eax; pop rbp; pop r12; ret; 
0x00000000000068c6: add byte ptr [rax], al; xor eax, eax; ret; 
0x000000000001f1c4: add byte ptr [rax], al; xor edi, edi; or r10d, 0x40; mov eax, ecx; syscall; 
0x0000000000016740: add byte ptr [rax], al; xor esi, esi; call rdx; 
0x000000000001d5ad: add byte ptr [rax], r8b; add rsp, 8; xor eax, eax; pop rbx; pop rbp; ret; 
0x000000000001adfd: add byte ptr [rax], r8b; endbr64; lea rax, [rip + 0x1287d]; ret; 
0x000000000001f2dd: add byte ptr [rax], r8b; endbr64; mov eax, 0x27; syscall; 
0x000000000001f2dd: add byte ptr [rax], r8b; endbr64; mov eax, 0x27; syscall; ret; 
0x000000000001ee8d: add byte ptr [rax], r8b; lea rdx, [rsp - 0x50]; mov esi, 0x10; mov eax, 0x48; syscall; 
0x000000000001f2a5: add byte ptr [rax], r8b; mov edi, edx; mov eax, esi; syscall; 
0x000000000001a025: add byte ptr [rax], r8b; mov qword ptr [rax + 0x20], rsi; ret; 
0x000000000000229d: add byte ptr [rax], r8b; mov qword ptr [rbp - 0x60], rsi; mov qword ptr [rbp - 0x58], rdx; mov qword ptr [rbp - 0x50], rcx; mov qword ptr [rbp - 0x48], rdi; call rax; 
0x0000000000011b8d: add byte ptr [rax], r8b; mov rdx, r13; mov rsi, r12; mov edi, ebp; call qword ptr [rbx]; 
0x000000000001f005: add byte ptr [rax], r8b; neg eax; mov dword ptr [rip + 0x10130], eax; mov eax, 0xffffffff; ret; 
0x000000000001ef9d: add byte ptr [rax], r8b; neg eax; mov dword ptr [rip + 0x10198], eax; mov eax, 0xffffffff; ret; 
0x000000000001ed95: add byte ptr [rax], r8b; neg eax; mov dword ptr [rip + 0x103a0], eax; mov eax, 0xffffffff; ret; 
0x000000000001ed45: add byte ptr [rax], r8b; neg eax; mov dword ptr [rip + 0x103f0], eax; mov eax, 0xffffffff; ret; 
0x000000000001ecf5: add byte ptr [rax], r8b; neg eax; mov dword ptr [rip + 0x10440], eax; mov eax, 0xffffffff; ret; 
0x000000000000f4d5: add byte ptr [rax], r8b; ret; 
0x00000000000068c5: add byte ptr [rax], r8b; xor eax, eax; ret; 
0x000000000001446a: add byte ptr [rbp + 0x13], dh; mov r8, qword ptr [rip + 0x1ab2c]; mov rax, r8; ret; 
0x000000000001c2e3: add byte ptr [rbp + 0x1a], dh; mov eax, dword ptr [rip + 0x12c90]; and eax, 0xffffffc7; or eax, 8; mov dword ptr [rip + 0x12c84], eax; ret; 
0x000000000001c253: add byte ptr [rbp + 0x1a], dh; mov eax, dword ptr [rip + 0x12d20]; and eax, 0xfffffff8; or eax, 1; mov dword ptr [rip + 0x12d14], eax; ret; 
0x000000000000f5e7: add byte ptr [rbp + 0x1bf0142], cl; add byte ptr [rax], al; add byte ptr [rcx - 0x4db7b], cl; jmp qword ptr [rsi + 0x2e]; 
0x000000000001eaa5: add byte ptr [rbp + 0x41], bl; pop rsp; ret; 
0x00000000000111d8: add byte ptr [rbp + 0x480375d2], al; mov dword ptr [rbx], eax; add rsp, 0x10; pop rbx; ret; 
0x0000000000015162: add byte ptr [rbp + 0x481975c0], al; mov dword ptr [rbx], 0; pop rbx; or dword ptr [rip + 0x19e22], 1; ret; 
0x000000000000f5df: add byte ptr [rbp + 0x7a840fd2], al; or eax, dword ptr [rax]; add byte ptr [rbp + 0x1bf0142], cl; add byte ptr [rax], al; add byte ptr [rcx - 0x4db7b], cl; jmp qword ptr [rsi + 0x2e]; 
0x0000000000014371: add byte ptr [rbp + 0xc], dh; lea rax, [r8 + 1]; mov qword ptr [rip + 0x1ac21], rax; ret; 
0x000000000000821d: add byte ptr [rbp + rcx*4 + 0xd], cl; ret; 
0x000000000001a628: add byte ptr [rbp + rdx + 0x48], dh; test edx, edx; je 0x1a640; lea rdi, [rcx + rsi + 0x20]; jmp rdx; 
0x000000000001c33b: add byte ptr [rbp - 0x2f], dh; mov eax, dword ptr [rip + 0x12c38]; and eax, 0xffffffc7; or eax, 0x18; mov dword ptr [rip + 0x12c2c], eax; ret; 
0x000000000001c2ab: add byte ptr [rbp - 0x2f], dh; mov eax, dword ptr [rip + 0x12cc8]; and eax, 0xfffffff8; or eax, 3; mov dword ptr [rip + 0x12cbc], eax; ret; 
0x000000000001c313: add byte ptr [rbp - 0x38], dh; mov eax, dword ptr [rip + 0x12c60]; and eax, 0xffffffc7; or eax, 0x10; mov dword ptr [rip + 0x12c54], eax; ret; 
0x000000000001c283: add byte ptr [rbp - 0x38], dh; mov eax, dword ptr [rip + 0x12cf0]; and eax, 0xfffffff8; or eax, 2; mov dword ptr [rip + 0x12ce4], eax; ret; 
0x000000000000c67f: add byte ptr [rbp - 0x76b7febe], cl; ret 0x8b49; 
0x0000000000008c52: add byte ptr [rbp - 0x7a7af001], al; add byte ptr [rax], al; add byte ptr [rax - 0x7d], cl; ret; 
0x000000000001ae42: add byte ptr [rbx + 0x1412f15], cl; add dh, dh; ret 0xf03; 
0x0000000000008217: add byte ptr [rbx + 0x26f2205], cl; add byte ptr [rbp + rcx*4 + 0xd], cl; ret; 
0x000000000001eebf: add byte ptr [rbx + 0x2b0247c], al; mov eax, dword ptr [rsp - 0x4c]; jne 0x1ee89; neg eax; ret; 
0x000000000000264c: add byte ptr [rbx + 0x2b80d0d], cl; add byte ptr [rsi + 0xf], ah; insb byte ptr [rdi], dx; ret 0x85c7; 
0x000000000001ef1f: add byte ptr [rbx + 0x2f8247c], al; mov eax, dword ptr [rsp - 4]; jne 0x1eee8; neg eax; ret; 
0x00000000000048c3: add byte ptr [rbx + 0x440ffff8], al; ret 0x589; 
0x000000000001697f: add byte ptr [rbx + 0x5d], bl; pop r12; ret; 
0x0000000000016a15: add byte ptr [rbx + 0x5d], bl; ret; 
0x000000000000dc7f: add byte ptr [rbx + 0x7525087b], al; adc ecx, dword ptr [rbx + rcx*4 + 0x33]; mov rax, qword ptr [rbx + 0x10]; add rax, qword ptr [r13]; call rax; 
0x000000000001ebdb: add byte ptr [rbx + 0xc], dh; mov rdx, qword ptr [rip + 0x1054b]; add word ptr [rdx + rax*2], 1; ret; 
0x000000000001ca6f: add byte ptr [rbx + rcx*4 + 0x62], cl; or byte ptr [rax - 0x75], cl; adc byte ptr [rax - 0x7d], cl; ret 0x4810; 
0x000000000001c947: add byte ptr [rbx + rcx*4 + 0x72], al; or byte ptr [rax - 0x75], cl; adc byte ptr [rax - 0x7d], cl; ret 0x4110; 
0x000000000001c9e7: add byte ptr [rbx + rcx*4 + 0x7a], cl; or byte ptr [rax - 0x75], cl; adc byte ptr [rax - 0x7d], cl; ret 0xbb10; 
0x000000000001488e: add byte ptr [rbx + rcx*4 + 0xd], cl; or ah, byte ptr [rdi - 0x7cb7ffff]; ret; 
0x000000000001e1ca: add byte ptr [rbx + rdi + 0x2c], cl; and al, 0xf; xchg eax, esp; ret 0x2040; 
0x0000000000002d79: add byte ptr [rbx - 0x1af6b], cl; jmp qword ptr [rsi + 0xf]; 
0x0000000000013921: add byte ptr [rbx - 0x28f7b], cl; jmp qword ptr [rsi + 0xf]; 
0x00000000000123cd: add byte ptr [rbx - 0x70f0c005], al; movsd dword ptr [rdi], dword ptr [rsi]; add al, 0; add byte ptr [rax + 0x63], cl; ret; 
0x000000000001c997: add byte ptr [rbx - 0x7cb7f7be], cl; ret 0xc610; 
0x000000000001ee3c: add byte ptr [rbx], al; add dword ptr [rax], eax; mov eax, 0xffffffff; ret; 
0x000000000001e31c: add byte ptr [rbx], cl; add byte ptr [rax - 0x77], cl; ret 0x8b48; 
0x0000000000007cb8: add byte ptr [rcx + 0x1bed8], cl; add byte ptr [rax], al; add ebx, 1; shl rax, 4; lea rdi, [r15 + rax + 0x480]; call rdx; 
0x0000000000017474: add byte ptr [rcx + 0x1c383d8], cl; shl rax, 4; lea rdi, [r12 + rax + 0x480]; call rcx; 
0x000000000001d250: add byte ptr [rcx + 0x29], cl; ret 0x30eb; 
0x0000000000016d27: add byte ptr [rcx + 0x39], al; ret 0x4076; 
0x0000000000012d67: add byte ptr [rcx + 0x39], al; ret; 
0x000000000002312f: add byte ptr [rcx + 0x39], cl; ret; 
0x0000000000016c3f: add byte ptr [rcx + 0x3ec90], cl; add byte ptr [rax - 0x7d], cl; ror dword ptr [rax], 0x83; ret 0x4801; 
0x000000000001d084: add byte ptr [rcx + 0x48d48c6], cl; jbe 0x1d09b; mov dh, 0x44; ret; 
0x0000000000014610: add byte ptr [rcx + 0x5e], al; ret; 
0x0000000000009243: add byte ptr [rcx + 0xf], al; mov dh, 0x56; jo 0xffffffff950f9648; rol byte ptr [rdx + rdx*8 - 0x72b7f08c], 0x1d; sti; ret 1; 
0x0000000000014018: add byte ptr [rcx + rax - 0x10], dh; inc dword ptr [r8 + 0x10]; pop rbx; pop rbp; ret; 
0x00000000000045d1: add byte ptr [rcx + rcx*2 + 0xf], dh; xor dword ptr [rax - 0x77], ecx; ret; 
0x0000000000011b8f: add byte ptr [rcx + rcx*4 - 0x16], cl; mov rsi, r12; mov edi, ebp; call qword ptr [rbx]; 
0x000000000001666c: add byte ptr [rcx + rcx*4 - 0x18], al; xor esi, esi; add r13d, 1; shl rax, 4; lea rdi, [r14 + rax + 0x480]; call rdx; 
0x000000000001dcdf: add byte ptr [rcx + rcx*4 - 0x20], al; pop r12; ret; 
0x00000000000050ef: add byte ptr [rcx + rcx*4 - 0x20], al; xor esi, esi; add r12d, 1; shl rax, 4; lea rdi, [r13 + rax + 0x480]; call rdx; 
0x00000000000051a8: add byte ptr [rcx + rcx*4 - 0x20], al; xor esi, esi; add r12d, 1; shl rax, 4; lea rdi, [r13 + rax + 0xe08]; call rdx; 
0x0000000000012924: add byte ptr [rcx + rcx*4 - 0x20], cl; pop rbx; pop rbp; pop r12; pop r13; ret; 
0x000000000001e5d1: add byte ptr [rcx + rcx*4 - 0x20], cl; pop rbx; pop rbp; pop r12; ret; 
0x000000000001f575: add byte ptr [rcx + rcx*4 - 0x38], al; add rsp, 0xd0; ret; 
0x0000000000014473: add byte ptr [rcx + rcx*4 - 0x40], cl; ret; 
0x0000000000007aed: add byte ptr [rcx + rcx*4 - 0xe], cl; call rcx; 
0x00000000000068bc: add byte ptr [rcx + rdi - 0x37], dh; xor eax, eax; ret; 
0x0000000000014407: add byte ptr [rcx + rdi - 0x40], cl; ja 0x14418; add rsp, 8; ret; 
0x000000000001efcc: add byte ptr [rcx + rdx - 0x48], dh; add dword ptr [rcx], eax; add byte ptr [rax], al; syscall; 
0x0000000000004ddf: add byte ptr [rcx - 0x1af7b], cl; dec dword ptr [rax - 0x77]; ret 0x8d48; 
0x0000000000011747: add byte ptr [rcx - 0x39], cl; ret 0xffff; 
0x0000000000005edd: add byte ptr [rcx - 0x3f], cl; out 4, al; lea rdx, [r13 + r14 + 8]; call rcx; 
0x000000000000f5ef: add byte ptr [rcx - 0x4db7b], cl; jmp qword ptr [rsi + 0x2e]; 
0x00000000000139c7: add byte ptr [rcx - 0x75], al; or byte ptr [rbp + rcx*4 + 0xc], cl; xor byte ptr [rcx + rcx*4 + 0xd], cl; ret 0x1b6; 
0x0000000000004c05: add byte ptr [rcx - 0x75], cl; mov bh, 0x90; add eax, dword ptr [rax]; add byte ptr [rax - 0x77], cl; ret; 
0x00000000000116ef: add byte ptr [rcx - 0x77], al; mov byte ptr [rcx - 0x73], 0x46; dec dword ptr [rax - 0x77]; ret 0xc148; 
0x000000000000df2e: add byte ptr [rcx - 0x77], cl; ret; 
0x00000000000045c9: add byte ptr [rcx - 0x7d], cl; mov edi, 0x288; add byte ptr [rcx + rcx*2 + 0xf], dh; xor dword ptr [rax - 0x77], ecx; ret; 
0x000000000001f79f: add byte ptr [rcx - 0x7d], cl; ret 0xf10; 
0x000000000000228f: add byte ptr [rcx - 0x80], al; stc; or cl, byte ptr [rdi]; test dword ptr [rdi + rdi*8 - 1], eax; jmp qword ptr [rsi + 0xf]; 
0x000000000000ef15: add byte ptr [rcx - 0x8f63], cl; dec dword ptr [rax - 0x77]; ret; 
0x000000000000ab6c: add byte ptr [rcx - 1], al; ror byte ptr [rax - 0x77], cl; ret; 
0x000000000000ade9: add byte ptr [rcx - 1], al; ror dword ptr [rax - 0x77], 1; ret; 
0x0000000000022816: add byte ptr [rcx - 9], cl; ret 1; 
0x000000000002283c: add byte ptr [rcx - 9], cl; ret 2; 
0x000000000002336f: add byte ptr [rcx], al; add byte ptr [rax], al; sub rax, rdx; ret; 
0x000000000001f03c: add byte ptr [rcx], al; add dword ptr [rax], eax; mov rax, -1; ret; 
0x000000000001e4bd: add byte ptr [rcx], al; cmp eax, 0x410000; je 0x1e4ee; mov eax, 0x101; syscall; 
0x000000000001efc5: add byte ptr [rcx], al; cmp eax, 0x410000; je 0x1efe0; mov eax, 0x101; syscall; 
0x000000000001e4c2: add byte ptr [rcx], al; je 0x1e4ee; mov eax, 0x101; syscall; 
0x000000000001efca: add byte ptr [rcx], al; je 0x1efe0; mov eax, 0x101; syscall; 
0x0000000000001cfa: add byte ptr [rcx], al; pop rbx; ret; 
0x0000000000015174: add byte ptr [rcx], al; ret; 
0x000000000001eac0: add byte ptr [rcx], dh; rcr byte ptr [rbp + 0x41], 0x5c; ret; 
0x000000000001ea28: add byte ptr [rcx], dh; rcr byte ptr [rbx + 0x5d], 0x41; pop rsp; ret; 
0x000000000002251c: add byte ptr [rcx], dh; rol bl, 0x83; ret 0x6620; 
0x00000000000107cc: add byte ptr [rcx], dh; ror byte ptr [rbp - 0x7b], cl; dec dword ptr [rax - 0x77]; mov r8b, 0xf; xchg eax, ebp; ret 0x2148; 
0x00000000000166c1: add byte ptr [rcx], dh; ror byte ptr [rcx - 0x75], 0x77; or al, ch; ret; 
0x00000000000167f1: add byte ptr [rcx], dh; shr al, 0xf7; ret 0xffff; 
0x00000000000111ef: add byte ptr [rcx], dh; shr bl, 0xcf; nop dword ptr [rax]; call rax; 
0x00000000000046c5: add byte ptr [rdi + 0x1002], bh; mov qword ptr [rbx + 0x10], rbx; syscall; 
0x000000000001afa1: add byte ptr [rdi + 0x3005], bh; mov eax, 0x9e; syscall; 
0x0000000000005b7f: add byte ptr [rdi + 1], bh; call rax; 
0x0000000000016a0a: add byte ptr [rdi + rdx + 0x48], dh; add esp, 8; mov eax, 1; pop rbx; pop rbp; ret; 
0x0000000000010593: add byte ptr [rdi - 0x2c517], bl; jmp qword ptr [rsi + 0xf]; 
0x000000000001e4c4: add byte ptr [rdi - 0x48], dh; add dword ptr [rcx], eax; add byte ptr [rax], al; syscall; 
0x000000000001dcd5: add byte ptr [rdi], cl; adc dword ptr [rax], eax; add rsp, 0x110; mov eax, r12d; pop r12; ret; 
0x000000000001e9a5: add byte ptr [rdi], cl; adc dword ptr [rbx + 0x38], eax; pop rbx; ret; 
0x000000000001927c: add byte ptr [rdi], cl; adc dword ptr [rbx], eax; pop rbx; ret; 
0x000000000001b01f: add byte ptr [rdi], cl; add eax, 0x850fc085; ret; 
0x000000000001c96f: add byte ptr [rdi], cl; mov bh, 0x42; or byte ptr [rax - 0x7d], cl; ret 0xc610; 
0x000000000001230f: add byte ptr [rdi], cl; mov dh, 0x42; add dword ptr [rax - 0x7d], ecx; ret 0x8401; 
0x0000000000020a3f: add byte ptr [rdi], cl; mov dh, 0xe; movzx eax, byte ptr [rdi]; sub eax, ecx; ret; 
0x000000000002254f: add byte ptr [rdi], cl; mov esp, 0x448d48c0; cmp al, dh; ret; 
0x000000000002257f: add byte ptr [rdi], cl; mov esp, 0x448d48c0; cmp byte ptr [rax], ah; ret; 
0x000000000002256f: add byte ptr [rdi], cl; mov esp, 0x448d48c0; cmp byte ptr [rax], dl; ret; 
0x000000000002258f: add byte ptr [rdi], cl; mov esp, 0xc22948c0; jbe 0x225d0; add rax, rdi; ret; 
0x000000000002259f: add byte ptr [rdi], cl; mov esp, 0xc22948c0; jbe 0x225d0; lea rax, [rdi + rax + 0x10]; ret; 
0x000000000002255f: add byte ptr [rdi], cl; mov esp, 0xf80148c0; ret; 
0x000000000000cd0b: add byte ptr [rdi], cl; test bh, ch; add dword ptr [rax], eax; add byte ptr [rax - 0x73], cl; cmp eax, 0x21c4f; call rdx; 
0x000000000001391b: add byte ptr [rdi], cl; test dword ptr [rsi], edi; add al, byte ptr [rax]; add byte ptr [rbx - 0x28f7b], cl; jmp qword ptr [rsi + 0xf]; 
0x0000000000007b01: add byte ptr [rdi], cl; xchg eax, ebp; ret 0x8341; 
0x0000000000004531: add byte ptr [rdi], cl; xchg eax, ebp; ret 0xb6e8; 
0x0000000000004564: add byte ptr [rdi], cl; xchg eax, esp; ret; 
0x0000000000016e52: add byte ptr [rdi], cl; xchg eax, esp; ror byte ptr [rdi], 0x94; ret 0x348; 
0x00000000000044b3: add byte ptr [rdi], cl; xor dword ptr [rax - 0x77], ecx; ret; 
0x000000000001f5f8: add byte ptr [rdx + 0x31], bl; rcr byte ptr [rbp + 0x41], 0x5c; ret; 
0x000000000001ef53: add byte ptr [rdx + 0x44], dh; mov edx, eax; mov rsi, r9; mov edi, 0xffffff9c; mov eax, 0x101; syscall; 
0x0000000000017e75: add byte ptr [rdx], al; add byte ptr [rax], al; add dh, dh; add eax, 0x1579f; jne 0x17e88; ret; 
0x000000000001ea37: add byte ptr [rdx], al; je 0x1ea22; pop rbx; pop rbp; pop r12; ret; 
0x000000000001e4bf: add byte ptr [rip + 0x410000], bh; je 0x1e4ee; mov eax, 0x101; syscall; 
0x000000000001efc7: add byte ptr [rip + 0x410000], bh; je 0x1efe0; mov eax, 0x101; syscall; 
0x000000000001e4be: add byte ptr [rip + 0x410000], dil; je 0x1e4ee; mov eax, 0x101; syscall; 
0x000000000001efc6: add byte ptr [rip + 0x410000], dil; je 0x1efe0; mov eax, 0x101; syscall; 
0x00000000000121d5: add byte ptr [rsi + 0x2e], ah; nop dword ptr [rax + rax]; endbr64; ret; 
0x000000000000cc8d: add byte ptr [rsi + 0x81], bh; mov eax, 0xca; syscall; 
0x0000000000002652: add byte ptr [rsi + 0xf], ah; insb byte ptr [rdi], dx; ret 0x85c7; 
0x000000000002253b: add byte ptr [rsi + 0xf], ah; je 0x2258f; adc byte ptr [rsi + 0xf], ah; xlatb; rol dword ptr [rbp + 0x315775c0], 0xc0; ret; 
0x0000000000013937: add byte ptr [rsi + 0xf], ah; outsd dx, dword ptr [rsi]; xchg eax, ebp; cmp ch, 0xff; jmp qword ptr [rsi + 0xf]; 
0x0000000000022484: add byte ptr [rsi + 0xf], ah; xlatb; ret 0xc085; 
0x0000000000017d44: add byte ptr [rsi + 2], bh; add r12d, 1; shl rax, 4; lea rdi, [rdi + rax + 0xe08]; call rcx; 
0x000000000001f25d: add byte ptr [rsi - 0x70], ah; endbr64; mov eax, 0x3f; syscall; 
0x000000000001f22d: add byte ptr [rsi - 0x70], ah; endbr64; mov eax, 0xa; syscall; 
0x000000000001e7b5: add byte ptr [rsi], dl; add byte ptr [rax], al; add byte ptr [rax - 1], bh; ret; 
0x000000000000bb98: add cl, byte ptr [rax + 0x39]; ret 0x860f; 
0x000000000001add3: add cl, byte ptr [rax - 0x7d]; clc; push qword ptr [rbp + rax + 0x48]; add eax, dword ptr [rdi + 8]; ret; 
0x0000000000014d23: add cl, byte ptr [rax - 0x7d]; clc; push qword ptr [rsi + rcx + 0x48]; add eax, dword ptr [rdi + 8]; ret; 
0x0000000000016307: add cl, byte ptr [rax - 0x7d]; ret 0x4808; 
0x00000000000232a3: add cl, byte ptr [rax - 0x7d]; ret 0xe908; 
0x0000000000017010: add cl, byte ptr [rcx - 0x7d]; ret 0x4108; 
0x0000000000017027: add cl, byte ptr [rcx - 0x7d]; ret 0x4808; 
0x00000000000016ea: add cl, byte ptr [rdi]; test byte ptr [rdx - 0x14000002], ah; rol byte ptr [rcx - 0x77], cl; ret 0xd231; 
0x000000000001ae31: add cl, byte ptr [rdi]; xchg eax, esp; ret 0xfb83; 
0x000000000001bf45: add cl, ch; cmc; idiv bh; jmp qword ptr [rsi - 0x7f]; 
0x000000000001c8ef: add cl, ch; movabs eax, dword ptr [0x8b48001f0f000001]; or byte ptr [rax - 0x7d], cl; ret 0xc610; 
0x0000000000004ea4: add cl, ch; ret 0xffe5; 
0x000000000000829e: add cl, ch; ret 0xfff8; 
0x0000000000003551: add cl, ch; ret; 
0x0000000000010450: add cl, ch; scasb al, byte ptr [rdi]; idiv bh; jmp qword ptr [rsi + 0x2e]; 
0x000000000001ea38: add dh, byte ptr [rdi + 0x5b]; pop rbp; pop r12; ret; 
0x0000000000017e79: add dh, dh; add eax, 0x1579f; jne 0x17e88; ret; 
0x0000000000003047: add dh, dh; ret 0x7402; 
0x000000000000e6cc: add dh, dh; ret 0x7403; 
0x0000000000003053: add dh, dh; ret 0x7404; 
0x000000000001ae48: add dh, dh; ret 0xf03; 
0x000000000000f29b: add dh, dh; ret 0xf04; 
0x0000000000006a41: add dh, dh; ret 0xf07; 
0x000000000001ee36: add dil, sil; fmul dword ptr [rcx + 0x1030005]; add byte ptr [rax - 1], bh; ret; 
0x000000000001ee06: add dil, sil; fmul dword ptr [rcx + 0x1033005]; add byte ptr [rax - 1], bh; ret; 
0x00000000000046c7: add dl, byte ptr [rax]; add byte ptr [rax], al; mov qword ptr [rbx + 0x10], rbx; syscall; 
0x00000000000011ab: add dword ptr [r8], eax; mov qword ptr [rbx + 8], rax; pop rax; pop rdx; pop rbx; ret; 
0x0000000000009c79: add dword ptr [rax + 0x39], ecx; ret; 
0x00000000000195db: add dword ptr [rax + rax*8 - 0x41f0318b], eax; ret 0xd8f7; 
0x0000000000017686: add dword ptr [rax - 0x3f], ecx; loope 0x1768f; lea rdi, [rdi + rcx + 0xe08]; call rax; 
0x0000000000014377: add dword ptr [rax - 0x77], ecx; add eax, 0x1ac21; ret; 
0x000000000000671b: add dword ptr [rax - 0x77], ecx; ret 0x8948; 
0x000000000000c682: add dword ptr [rax - 0x77], ecx; ret 0x8b49; 
0x0000000000017bde: add dword ptr [rax - 0x7d], ecx; ret 0x3901; 
0x0000000000010d3c: add dword ptr [rax - 0x7d], ecx; ret 0x4810; 
0x0000000000003145: add dword ptr [rax - 0x7d], ecx; ret 0x4838; 
0x000000000000315d: add dword ptr [rax - 0x7d], ecx; ret 0x4938; 
0x0000000000010d51: add dword ptr [rax - 0x7d], ecx; ret 0x4f10; 
0x000000000000a368: add dword ptr [rax - 0x7d], ecx; ret 0x8401; 
0x0000000000017e74: add dword ptr [rax], eax; add al, byte ptr [rax]; add byte ptr [rax], al; test byte ptr [rip + 0x1579f], 0x40; jne 0x17e88; ret; 
0x0000000000012712: add dword ptr [rax], eax; add byte ptr [rax + 0x39], cl; ret 0xf48; 
0x0000000000012496: add dword ptr [rax], eax; add byte ptr [rax + 0x63], cl; ret; 
0x000000000000cd0f: add dword ptr [rax], eax; add byte ptr [rax - 0x73], cl; cmp eax, 0x21c4f; call rdx; 
0x0000000000013ea0: add dword ptr [rax], eax; add byte ptr [rax - 0x7d], cl; ret 0x4c08; 
0x0000000000019f85: add dword ptr [rax], eax; add byte ptr [rax], al; add byte ptr [rax], al; add rsp, 8; ret; 
0x000000000001ddb3: add dword ptr [rax], eax; add byte ptr [rax], al; add byte ptr [rax], al; mov qword ptr [rip + 0x11340], r8; call rsi; 
0x000000000001dcf5: add dword ptr [rax], eax; add byte ptr [rax], al; add byte ptr [rax], al; mov rdi, rdx; xor r12d, r12d; call rsi; 
0x0000000000007d01: add dword ptr [rax], eax; add byte ptr [rax], al; add ebx, 1; shl rax, 4; lea rdi, [r14 + rax + 0xe08]; call rdx; 
0x0000000000007cbc: add dword ptr [rax], eax; add byte ptr [rax], al; add ebx, 1; shl rax, 4; lea rdi, [r15 + rax + 0x480]; call rdx; 
0x0000000000012be1: add dword ptr [rax], eax; add byte ptr [rax], al; add rsp, 8; pop rbx; pop rbp; ret; 
0x0000000000005b81: add dword ptr [rax], eax; add byte ptr [rax], al; call rax; 
0x0000000000006223: add dword ptr [rax], eax; add byte ptr [rax], al; call rdx; 
0x000000000000cc8a: add dword ptr [rax], eax; add byte ptr [rax], al; mov esi, 0x81; mov eax, 0xca; syscall; 
0x000000000001f104: add dword ptr [rax], eax; add byte ptr [rax], al; pop rbx; pop rbp; pop r12; ret; 
0x0000000000016a12: add dword ptr [rax], eax; add byte ptr [rax], al; pop rbx; pop rbp; ret; 
0x0000000000006901: add dword ptr [rax], eax; add byte ptr [rax], al; ret; 
0x000000000001f085: add dword ptr [rax], eax; add byte ptr [rax], al; syscall; 
0x000000000001f085: add dword ptr [rax], eax; add byte ptr [rax], al; syscall; cmp rax, -0x1000; ja 0x1f098; ret; 
0x0000000000014468: add dword ptr [rax], eax; add byte ptr [rbp + 0x13], dh; mov r8, qword ptr [rip + 0x1ab2c]; mov rax, r8; ret; 
0x000000000001ae40: add dword ptr [rax], eax; add byte ptr [rbx + 0x1412f15], cl; add dh, dh; ret 0xf03; 
0x000000000001d2ae: add dword ptr [rax], eax; add byte ptr [rbx + 0x5d], bl; pop r12; ret; 
0x000000000001e1c8: add dword ptr [rax], eax; add byte ptr [rbx + rdi + 0x2c], cl; and al, 0xf; xchg eax, esp; ret 0x2040; 
0x000000000001dcdd: add dword ptr [rax], eax; add byte ptr [rcx + rcx*4 - 0x20], al; pop r12; ret; 
0x00000000000116ed: add dword ptr [rax], eax; add byte ptr [rcx - 0x77], al; mov byte ptr [rcx - 0x73], 0x46; dec dword ptr [rax - 0x77]; ret 0xc148; 
0x000000000001ea36: add dword ptr [rax], eax; add dh, byte ptr [rdi + 0x5b]; pop rbp; pop r12; ret; 
0x0000000000017681: add dword ptr [rax], eax; add r12d, 1; shl rcx, 4; lea rdi, [rdi + rcx + 0xe08]; call rax; 
0x000000000001dd0d: add dword ptr [rax], eax; add rsp, 0x110; mov eax, r12d; pop r12; ret; 
0x0000000000001431: add dword ptr [rax], eax; add rsp, 0x40; pop rbx; pop rbp; pop r12; ret; 
0x000000000001c522: add dword ptr [rax], eax; add rsp, 0x88; pop rbx; ret; 
0x000000000001d4f3: add dword ptr [rax], eax; add rsp, 8; pop rbx; pop rbp; ret; 
0x000000000001d635: add dword ptr [rax], eax; add rsp, 8; ret; 
0x000000000001ebe3: add dword ptr [rax], eax; add word ptr [rdx + rax*2], 1; ret; 
0x000000000001c31a: add dword ptr [rax], eax; and eax, 0xffffffc7; or eax, 0x10; mov dword ptr [rip + 0x12c54], eax; ret; 
0x000000000001c342: add dword ptr [rax], eax; and eax, 0xffffffc7; or eax, 0x18; mov dword ptr [rip + 0x12c2c], eax; ret; 
0x000000000001c2ea: add dword ptr [rax], eax; and eax, 0xffffffc7; or eax, 8; mov dword ptr [rip + 0x12c84], eax; ret; 
0x000000000001c25a: add dword ptr [rax], eax; and eax, 0xfffffff8; or eax, 1; mov dword ptr [rip + 0x12d14], eax; ret; 
0x000000000001c28a: add dword ptr [rax], eax; and eax, 0xfffffff8; or eax, 2; mov dword ptr [rip + 0x12ce4], eax; ret; 
0x000000000001c2b2: add dword ptr [rax], eax; and eax, 0xfffffff8; or eax, 3; mov dword ptr [rip + 0x12cbc], eax; ret; 
0x00000000000121cf: add dword ptr [rax], eax; call 0x1d790; nop word ptr cs:[rax + rax]; endbr64; ret; 
0x0000000000019f79: add dword ptr [rax], eax; call 0x1f200; mov qword ptr [rip + 0x1514d], 0; add rsp, 8; ret; 
0x0000000000014327: add dword ptr [rax], eax; call rcx; 
0x000000000001ddbe: add dword ptr [rax], eax; call rsi; 
0x000000000001d609: add dword ptr [rax], eax; cmp rcx, rdi; je 0x1d618; ret; 
0x000000000001df58: add dword ptr [rax], eax; cmp rdi, rax; ja 0x1df80; xor eax, eax; ret; 
0x000000000001bee6: add dword ptr [rax], eax; fucomip st(1); push rdx; idiv edi; jmp qword ptr [rsi - 0x7f]; 
0x000000000001ebda: add dword ptr [rax], eax; jae 0x1ebea; mov rdx, qword ptr [rip + 0x1054b]; add word ptr [rdx + rax*2], 1; ret; 
0x0000000000014370: add dword ptr [rax], eax; jne 0x14380; lea rax, [r8 + 1]; mov qword ptr [rip + 0x1ac21], rax; ret; 
0x0000000000017e7e: add dword ptr [rax], eax; jne 0x17e88; ret; 
0x000000000001d986: add dword ptr [rax], eax; lea rax, [rcx + 1]; mov qword ptr [rdi], rax; mov rax, r8; ret; 
0x0000000000019f59: add dword ptr [rax], eax; lea rax, [rdi - 1]; cmp rax, -3; jbe 0x19f70; ret; 
0x00000000000121c8: add dword ptr [rax], eax; lea rdi, [rip + 0x15b4f]; call 0x1d790; nop word ptr cs:[rax + rax]; endbr64; ret; 
0x0000000000012109: add dword ptr [rax], eax; mov dword ptr [rbp - 0x38], edx; shl rax, 4; lea rdi, [rcx + rax + 0xe08]; call rsi; 
0x0000000000014f24: add dword ptr [rax], eax; mov eax, 0x59; mov rbp, rsp; mov rsi, rbp; syscall; 
0x000000000001e4e6: add dword ptr [rax], eax; mov eax, 0xffffffff; ret; 
0x000000000001afa0: add dword ptr [rax], eax; mov edi, 0x3005; mov eax, 0x9e; syscall; 
0x0000000000017d43: add dword ptr [rax], eax; mov esi, 2; add r12d, 1; shl rax, 4; lea rdi, [rdi + rax + 0xe08]; call rcx; 
0x00000000000011ac: add dword ptr [rax], eax; mov qword ptr [rbx + 8], rax; pop rax; pop rdx; pop rbx; ret; 
0x0000000000014699: add dword ptr [rax], eax; mov qword ptr [rdi], rax; mov rax, qword ptr [rip + 0x1a923]; mov qword ptr [rsi], rax; ret; 
0x000000000001ddc7: add dword ptr [rax], eax; mov qword ptr [rip + 0x11330], rbx; add rsp, 8; pop rbx; pop rbp; ret; 
0x000000000001ddac: add dword ptr [rax], eax; mov qword ptr [rip + 0x1134f], 0; mov qword ptr [rip + 0x11340], r8; call rsi; 
0x000000000001d4ec: add dword ptr [rax], eax; mov qword ptr [rip + 0x11c03], rcx; add rsp, 8; pop rbx; pop rbp; ret; 
0x00000000000146a3: add dword ptr [rax], eax; mov qword ptr [rsi], rax; ret; 
0x000000000001eb0e: add dword ptr [rax], eax; mov rax, -1; ret; 
0x0000000000014472: add dword ptr [rax], eax; mov rax, r8; ret; 
0x00000000000142f9: add dword ptr [rax], eax; mov rbx, rax; call rcx; 
0x000000000001df84: add dword ptr [rax], eax; or al, 0; add byte ptr [rax], al; mov eax, 0xffffffff; ret; 
0x000000000001460f: add dword ptr [rax], eax; pop r14; ret; 
0x0000000000015188: add dword ptr [rax], eax; pop rbx; ret; 
0x000000000001437d: add dword ptr [rax], eax; ret; 
0x000000000001ea27: add dword ptr [rax], eax; xor eax, eax; pop rbx; pop rbp; pop r12; ret; 
0x000000000001df79: add dword ptr [rax], eax; xor eax, eax; ret; 
0x0000000000017cc0: add dword ptr [rax], eax; xor esi, esi; add r12d, 1; shl rax, 4; lea rdi, [rcx + rax + 0xe08]; call rdx; 
0x000000000001cbea: add dword ptr [rax], esi; add byte ptr [rax], al; mov eax, 0x9e; syscall; 
0x000000000001a373: add dword ptr [rcx - 0x7d], ecx; ret 0x4938; 
0x0000000000009fb4: add dword ptr [rcx - 0x7d], ecx; ret; 
0x000000000001efa5: add dword ptr [rcx], eax; add byte ptr [rax - 1], bh; ret; 
0x000000000001e4c8: add dword ptr [rcx], eax; add byte ptr [rax], al; syscall; 
0x000000000001e4c8: add dword ptr [rcx], eax; add byte ptr [rax], al; syscall; cmp rax, -0x1000; ja 0x1e4e0; ret; 
0x000000000001ef62: add dword ptr [rcx], eax; add byte ptr [rax], al; syscall; cmp rax, -0x1000; ja 0x1efa0; ret; 
0x000000000001efd0: add dword ptr [rcx], eax; add byte ptr [rax], al; syscall; cmp rax, -0x1000; ja 0x1f008; ret; 
0x0000000000022834: add dword ptr [rcx], ebp; ror byte ptr [rdi], 1; test dword ptr [rax + rax - 0x8b70000], ecx; ret 2; 
0x00000000000120c8: add dword ptr [rcx], edi; ret 0x830f; 
0x000000000001212b: add dword ptr [rcx], edi; ret 0xc972; 
0x000000000002363d: add dword ptr [rdi + 0x15], esi; jb 0x23644; mov byte ptr [rdi], cl; ret; 
0x00000000000233c0: add dword ptr [rdi + 0x26], esi; jb 0x233ca; movzx ecx, byte ptr [rsi]; mov byte ptr [rdi], cl; ret; 
0x000000000001e785: add dword ptr [rdi + 0x28], esi; mov eax, 0x106; syscall; 
0x000000000001e785: add dword ptr [rdi + 0x28], esi; mov eax, 0x106; syscall; cmp rax, -0x1000; ja 0x1e7a0; ret; 
0x000000000001ece0: add dword ptr [rdi + 0x2d], esi; mov eax, 4; syscall; 
0x000000000001ece0: add dword ptr [rdi + 0x2d], esi; mov eax, 4; syscall; cmp rax, -0x1000; ja 0x1ecf8; ret; 
0x000000000001ed80: add dword ptr [rdi + 0x2d], esi; mov eax, 6; syscall; 
0x000000000001ed80: add dword ptr [rdi + 0x2d], esi; mov eax, 6; syscall; cmp rax, -0x1000; ja 0x1ed98; ret; 
0x000000000001ed2f: add dword ptr [rdi + 0x2e], esi; mov eax, 5; syscall; 
0x000000000001ed2f: add dword ptr [rdi + 0x2e], esi; mov eax, 5; syscall; cmp rax, -0x1000; ja 0x1ed48; ret; 
0x0000000000001154: add dword ptr [rdi + 4], 1; ret; 
0x000000000001ebe6: add dword ptr [rdx + rax*2], 1; ret; 
0x000000000000b36b: add dword ptr [rsi - 0x7b], esp; ror byte ptr [rdi], cl; xchg eax, esp; ret 0xb60f; 
0x00000000000121c7: add dword ptr ss:[rax], eax; lea rdi, [rip + 0x15b4f]; call 0x1d790; nop word ptr cs:[rax + rax]; endbr64; ret; 
0x000000000001f09b: add eax, 0x100a0; mov rax, -1; ret; 
0x000000000001f073: add eax, 0x100c8; mov rax, -1; ret; 
0x000000000001f03b: add eax, 0x10100; mov rax, -1; ret; 
0x000000000001f00b: add eax, 0x10130; mov eax, 0xffffffff; ret; 
0x000000000001efa3: add eax, 0x10198; mov eax, 0xffffffff; ret; 
0x000000000001ef0b: add eax, 0x10230; mov eax, 0xffffffff; ret; 
0x000000000001eeab: add eax, 0x10290; mov eax, 0xffffffff; ret; 
0x000000000001ee3b: add eax, 0x10300; mov eax, 0xffffffff; ret; 
0x000000000001ee0b: add eax, 0x10330; mov eax, 0xffffffff; ret; 
0x000000000001eddb: add eax, 0x10360; mov rax, -1; ret; 
0x000000000001ed9b: add eax, 0x103a0; mov eax, 0xffffffff; ret; 
0x000000000001ed4b: add eax, 0x103f0; mov eax, 0xffffffff; ret; 
0x000000000001ecfb: add eax, 0x10440; mov eax, 0xffffffff; ret; 
0x000000000001ebd7: add eax, 0x1054c; jae 0x1ebea; mov rdx, qword ptr [rip + 0x1054b]; add word ptr [rdx + rax*2], 1; ret; 
0x000000000001eb0b: add eax, 0x10630; mov rax, -1; ret; 
0x000000000001e7a3: add eax, 0x10998; mov eax, 0xffffffff; ret; 
0x000000000001e4e3: add eax, 0x10c58; mov eax, 0xffffffff; ret; 
0x000000000001df55: add eax, 0x111b6; cmp rdi, rax; ja 0x1df80; xor eax, eax; ret; 
0x000000000001df81: add eax, 0x111b6; or al, 0; add byte ptr [rax], al; mov eax, 0xffffffff; ret; 
0x000000000001df76: add eax, 0x111c5; xor eax, eax; ret; 
0x000000000001c51f: add eax, 0x111e4; add rsp, 0x88; pop rbx; ret; 
0x000000000001ddbb: add eax, 0x11340; call rsi; 
0x000000000001ddb0: add eax, 0x1134f; add byte ptr [rax], al; add byte ptr [rax], al; mov qword ptr [rip + 0x11340], r8; call rsi; 
0x000000000001dd0a: add eax, 0x113f9; add rsp, 0x110; mov eax, r12d; pop r12; ret; 
0x000000000001d632: add eax, 0x11ac1; add rsp, 8; ret; 
0x000000000001ae06: add eax, 0x1287d; ret; 
0x000000000001c34b: add eax, 0x12c2c; ret; 
0x000000000001c33f: add eax, 0x12c38; and eax, 0xffffffc7; or eax, 0x18; mov dword ptr [rip + 0x12c2c], eax; ret; 
0x000000000001c323: add eax, 0x12c54; ret; 
0x000000000001c317: add eax, 0x12c60; and eax, 0xffffffc7; or eax, 0x10; mov dword ptr [rip + 0x12c54], eax; ret; 
0x000000000001c2f3: add eax, 0x12c84; ret; 
0x000000000001c2e7: add eax, 0x12c90; and eax, 0xffffffc7; or eax, 8; mov dword ptr [rip + 0x12c84], eax; ret; 
0x000000000001c2bb: add eax, 0x12cbc; ret; 
0x000000000001c2af: add eax, 0x12cc8; and eax, 0xfffffff8; or eax, 3; mov dword ptr [rip + 0x12cbc], eax; ret; 
0x000000000001c293: add eax, 0x12ce4; ret; 
0x000000000001c287: add eax, 0x12cf0; and eax, 0xfffffff8; or eax, 2; mov dword ptr [rip + 0x12ce4], eax; ret; 
0x000000000001c263: add eax, 0x12d14; ret; 
0x000000000001c257: add eax, 0x12d20; and eax, 0xfffffff8; or eax, 1; mov dword ptr [rip + 0x12d14], eax; ret; 
0x0000000000019f82: add eax, 0x1514d; add byte ptr [rax], al; add byte ptr [rax], al; add rsp, 8; ret; 
0x0000000000017e7b: add eax, 0x1579f; jne 0x17e88; ret; 
0x0000000000015185: add eax, 0x19fb6; pop rbx; ret; 
0x0000000000014696: add eax, 0x1a91d; mov qword ptr [rdi], rax; mov rax, qword ptr [rip + 0x1a923]; mov qword ptr [rsi], rax; ret; 
0x00000000000146a0: add eax, 0x1a923; mov qword ptr [rsi], rax; ret; 
0x000000000001460c: add eax, 0x1a9a7; pop r14; ret; 
0x000000000001446f: add eax, 0x1ab2c; mov rax, r8; ret; 
0x000000000001437a: add eax, 0x1ac21; ret; 
0x000000000001436d: add eax, 0x1ac2e; jne 0x14380; lea rax, [r8 + 1]; mov qword ptr [rip + 0x1ac21], rax; ret; 
0x0000000000001cad: add eax, 0x2d31e; mov eax, 0x9e; mov qword ptr [rsi], rsi; mov qword ptr [rsi + 0x10], rsi; syscall; 
0x0000000000017ada: add eax, 0x480; call rcx; 
0x0000000000005100: add eax, 0x480; call rdx; 
0x000000000001b00e: add eax, 0x7403fb83; sub al, 0x31; idiv byte ptr [rdi + 0x3003]; mov eax, 0x9e; syscall; 
0x000000000001add9: add eax, 0x8470348; ret; 
0x000000000001b021: add eax, 0x850fc085; ret; 
0x000000000001d722: add eax, 0x8977; ret; 
0x000000000001d6f2: add eax, 0x89be; ret; 
0x000000000001d732: add eax, 0x89d5; ret; 
0x000000000001d702: add eax, 0x89e0; ret; 
0x000000000001d712: add eax, 0x89e3; ret; 
0x000000000001d6e2: add eax, 0x89e8; ret; 
0x000000000001ebd9: add eax, 0xc730001; mov rdx, qword ptr [rip + 0x1054b]; add word ptr [rdx + rax*2], 1; ret; 
0x00000000000051b9: add eax, 0xe08; call rdx; 
0x000000000001ecc5: add eax, 0xe98e; ret; 
0x000000000001f571: add eax, 0xfbca; mov eax, r9d; add rsp, 0xd0; ret; 
0x000000000001ef00: add eax, 0xfff0003d; push qword ptr [rsi + 0x18]; neg eax; mov dword ptr [rip + 0x10230], eax; mov eax, 0xffffffff; ret; 
0x000000000001eea0: add eax, 0xfff0003d; push qword ptr [rsi + 0x18]; neg eax; mov dword ptr [rip + 0x10290], eax; mov eax, 0xffffffff; ret; 
0x000000000001d3fb: add eax, 3; mov qword ptr [rdi], rdx; ret; 
0x0000000000014e47: add eax, dword ptr [rax]; add al, ch; push rcx; ret 0xfffe; 
0x000000000000d12f: add eax, dword ptr [rax]; add byte ptr [rax - 0x73], cl; add al, 0x90; mov dword ptr [rdi + 0x2f4], edx; mov qword ptr [rdi + 0x308], rax; ret; 
0x000000000000d0fd: add eax, dword ptr [rax]; add byte ptr [rax - 0x73], cl; add al, 0x90; mov dword ptr [rdi + 0x2fc], ecx; mov qword ptr [rdi + 0x310], rax; ret; 
0x000000000000fa6a: add eax, dword ptr [rax]; add byte ptr [rax - 0x77], cl; ret 0x8548; 
0x0000000000004c0a: add eax, dword ptr [rax]; add byte ptr [rax - 0x77], cl; ret; 
0x0000000000003801: add eax, dword ptr [rax]; add byte ptr [rax - 0x7d], cl; ret; 
0x0000000000016c43: add eax, dword ptr [rax]; add byte ptr [rax - 0x7d], cl; ror dword ptr [rax], 0x83; ret 0x4801; 
0x000000000001ee25: add eax, dword ptr [rax]; add byte ptr [rax], al; syscall; 
0x000000000001ee25: add eax, dword ptr [rax]; add byte ptr [rax], al; syscall; cmp rax, -0x1000; ja 0x1ee38; ret; 
0x00000000000123cb: add eax, dword ptr [rax]; add byte ptr [rbx - 0x70f0c005], al; movsd dword ptr [rdi], dword ptr [rsi]; add al, 0; add byte ptr [rax + 0x63], cl; ret; 
0x0000000000010591: add eax, dword ptr [rax]; add byte ptr [rdi - 0x2c517], bl; jmp qword ptr [rsi + 0xf]; 
0x0000000000007aff: add eax, dword ptr [rax]; add byte ptr [rdi], cl; xchg eax, ebp; ret 0x8341; 
0x000000000000452f: add eax, dword ptr [rax]; add byte ptr [rdi], cl; xchg eax, ebp; ret 0xb6e8; 
0x0000000000004ea2: add eax, dword ptr [rax]; add cl, ch; ret 0xffe5; 
0x0000000000003045: add eax, dword ptr [rax]; add dh, dh; ret 0x7402; 
0x000000000000e6ca: add eax, dword ptr [rax]; add dh, dh; ret 0x7403; 
0x0000000000006a3f: add eax, dword ptr [rax]; add dh, dh; ret 0xf07; 
0x0000000000001dd1: add eax, dword ptr [rbp + 0x5b0a75c0]; ret; 
0x0000000000011b7d: add eax, dword ptr [rbp - 0x72de8b2e]; dec dword ptr [rbp + r9*4 + 0x74]; ret; 
0x000000000000ead1: add eax, dword ptr [rbp - 0x7b]; leave; jne 0xeae7; mov qword ptr [rbp - 0xd8], r11; call rax; 
0x000000000000dc8e: add eax, dword ptr [rbp]; call rax; 
0x0000000000011b53: add eax, dword ptr [rbx]; mov rsi, r12; mov edi, ebp; call rax; 
0x000000000000ead0: add eax, dword ptr [rbx]; test r9d, r9d; jne 0xeae7; mov qword ptr [rbp - 0xd8], r11; call rax; 
0x000000000001d358: add eax, dword ptr [rcx + 0x5c]; shl eax, cl; ret; 
0x000000000001ed4d: add eax, dword ptr [rcx]; add byte ptr [rax - 1], bh; ret; 
0x000000000001ed63: add eax, dword ptr [rcx]; add byte ptr [rsi], dl; add byte ptr [rax], al; add byte ptr [rax - 1], bh; ret; 
0x000000000001ac46: add eax, dword ptr [rdi + 8]; mov rsi, qword ptr [rsp - 0x10]; sub rax, qword ptr fs:[0]; mov rdi, qword ptr [rsp - 8]; ret; 
0x0000000000014d2b: add eax, dword ptr [rdi + 8]; ret; 
0x0000000000011f89: add eax, dword ptr [rdi]; call rax; 
0x000000000000e0cf: add eax, dword ptr [rdi]; test ecx, ecx; jne 0xe0d7; call rax; 
0x000000000000e99c: add eax, dword ptr [rdi]; test edx, edx; jne 0xe9a4; call rax; 
0x000000000000e1e4: add eax, dword ptr [rdi]; test r11d, r11d; jne 0xe1ed; call rax; 
0x000000000000121b: add eax, dword ptr [rdx + 8]; mov qword ptr [rbx + 0x10], rax; add rsp, 0x10; pop rbx; ret; 
0x0000000000016971: add eax, dword ptr [rdx + 8]; pop rbp; pop r12; jmp rax; 
0x000000000001debb: add eax, dword ptr [rsi]; call rax; 
0x0000000000008367: add eax, ebp; adc esi, dword ptr [rax - 0x3714ffff]; nop; ret; 
0x0000000000022339: add eax, ecx; ret; 
0x0000000000022336: add eax, edi; add rax, rcx; ret; 
0x0000000000022564: add eax, edi; ret; 
0x0000000000014cdd: add eax, edx; ret; 
0x0000000000022fb6: add eax, edx; sub rax, rdi; ret; 
0x000000000001401a: add eax, esi; inc dword ptr [r8 + 0x10]; pop rbx; pop rbp; ret; 
0x0000000000016673: add ebp, 1; shl rax, 4; lea rdi, [r14 + rax + 0x480]; call rdx; 
0x0000000000016733: add ebp, 1; shl rax, 4; lea rdi, [rsi + rax + 0xe08]; xor esi, esi; call rdx; 
0x0000000000017477: add ebx, 1; shl rax, 4; lea rdi, [r12 + rax + 0x480]; call rcx; 
0x0000000000007d05: add ebx, 1; shl rax, 4; lea rdi, [r14 + rax + 0xe08]; call rdx; 
0x0000000000007cc0: add ebx, 1; shl rax, 4; lea rdi, [r15 + rax + 0x480]; call rdx; 
0x0000000000011ce9: add ebx, 8; mov rdx, r13; mov rsi, r12; mov edi, ebp; call qword ptr [rax]; 
0x000000000000f4ae: add ebx, dword ptr [rbx + 0x5d]; pop r12; ret; 
0x0000000000006f6a: add ecx, dword ptr [rax + 0x29]; ret 0x8948; 
0x000000000001de26: add ecx, dword ptr [rax + 0xf]; scasd eax, dword ptr [rdi]; ret 0x148; 
0x0000000000012d33: add ecx, dword ptr [rax - 0x77]; mov rax, r8; ret; 
0x000000000001d268: add ecx, dword ptr [rax - 0x7d]; ret 0x4803; 
0x000000000000e655: add ecx, dword ptr [rax - 0x7d]; ret; 
0x000000000001693c: add ecx, dword ptr [rbp - 0x3f7a00b0]; je 0x1695e; lea rbx, [rbp + rdx*8]; nop dword ptr [rax]; call qword ptr [rbx]; 
0x0000000000011b54: add ecx, dword ptr [rcx + rcx*4 - 0x1a]; mov edi, ebp; call rax; 
0x000000000000924b: add ecx, dword ptr [rdi]; xchg eax, ebp; rol byte ptr [rdx + rdx*8 - 0x72b7f08c], 0x1d; sti; ret 1; 
0x0000000000011695: add ecx, eax; lea r8, [rsp + 0x34]; call rax; 
0x000000000000cc86: add edi, 0x1c; mov edx, 1; mov esi, 0x81; mov eax, 0xca; syscall; 
0x000000000001f102: add edi, dword ptr [rax + 1]; pop rbx; pop rbp; pop r12; ret; 
0x000000000001d3f7: add edx, 8; add rax, 3; mov qword ptr [rdi], rdx; ret; 
0x0000000000005ed8: add esi, 0xe0; shl r14, 4; lea rdx, [r13 + r14 + 8]; call rcx; 
0x00000000000195d9: add esi, 1; test al, al; jne 0x195ae; movsx eax, dl; neg eax; ret; 
0x000000000001b017: add esi, dword ptr [rax]; add byte ptr [rax], al; mov eax, 0x9e; syscall; 
0x000000000001d32c: add esi, dword ptr [rbp - 0x50]; add rsp, 0x1d0; pop rbx; pop rbp; pop r12; ret; 
0x000000000001b011: add esi, dword ptr [rsp + rbp + 0x31]; idiv byte ptr [rdi + 0x3003]; mov eax, 0x9e; syscall; 
0x0000000000010da3: add esi, esi; ret 0xf01; 
0x000000000002336d: add esp, 0x100; sub rax, rdx; ret; 
0x0000000000001223: add esp, 0x10; pop rbx; ret; 
0x000000000001dcda: add esp, 0x110; mov eax, r12d; pop r12; ret; 
0x000000000001db62: add esp, 0x18; mov edi, r12d; pop rbp; pop r12; jmp rax; 
0x000000000001dbe9: add esp, 0x18; mov rdx, r12; mov edi, ebp; pop rbp; pop r12; jmp rax; 
0x000000000001a989: add esp, 0x18; pop rbx; pop rbp; pop r12; pop r13; ret; 
0x000000000001d2ab: add esp, 0x1d0; pop rbx; pop rbp; pop r12; ret; 
0x000000000001dd7d: add esp, 0x20; pop rbx; pop rbp; pop r12; ret; 
0x0000000000001434: add esp, 0x40; pop rbx; pop rbp; pop r12; ret; 
0x00000000000016b3: add esp, 0x40; pop rbx; ret; 
0x000000000001ada0: add esp, 0x48; jmp qword ptr [rax]; 
0x000000000001ad1e: add esp, 0x58; jmp qword ptr [rax]; 
0x000000000001d118: add esp, 0x68; pop rbx; pop rbp; pop r12; pop r13; ret; 
0x000000000001c525: add esp, 0x88; pop rbx; ret; 
0x000000000001eaa0: add esp, 0x98; pop rbp; pop r12; ret; 
0x000000000001e813: add esp, 0x98; ret; 
0x000000000001eabb: add esp, 0x98; xor eax, eax; pop rbp; pop r12; ret; 
0x000000000001ecb2: add esp, 0xc8; ret; 
0x000000000001f547: add esp, 0xd0; ret; 
0x0000000000012a32: add esp, 0xd8; ret; 
0x0000000000017ad0: add esp, 1; shl rax, 4; lea rdi, [r13 + rax + 0x480]; call rcx; 
0x00000000000050f6: add esp, 1; shl rax, 4; lea rdi, [r13 + rax + 0x480]; call rdx; 
0x00000000000051af: add esp, 1; shl rax, 4; lea rdi, [r13 + rax + 0xe08]; call rdx; 
0x0000000000017cc5: add esp, 1; shl rax, 4; lea rdi, [rcx + rax + 0xe08]; call rdx; 
0x0000000000017d4b: add esp, 1; shl rax, 4; lea rdi, [rdi + rax + 0xe08]; call rcx; 
0x0000000000017684: add esp, 1; shl rcx, 4; lea rdi, [rdi + rcx + 0xe08]; call rax; 
0x0000000000016a0e: add esp, 8; mov eax, 1; pop rbx; pop rbp; ret; 
0x0000000000015082: add esp, 8; mov eax, r12d; pop rbp; pop r12; ret; 
0x000000000001dfda: add esp, 8; mov rax, r12; pop rbx; pop r12; ret; 
0x000000000001d841: add esp, 8; mov rax, rbp; pop rbx; pop rbp; ret; 
0x0000000000006d0c: add esp, 8; pop rbx; pop rbp; pop r12; pop r13; ret; 
0x0000000000012be6: add esp, 8; pop rbx; pop rbp; ret; 
0x000000000001440e: add esp, 8; ret; 
0x0000000000012bf1: add esp, 8; xor eax, eax; pop rbx; pop rbp; ret; 
0x0000000000012711: add qword ptr [rax], r8; add byte ptr [rax + 0x39], cl; ret 0xf48; 
0x0000000000017acf: add r12d, 1; shl rax, 4; lea rdi, [r13 + rax + 0x480]; call rcx; 
0x00000000000050f5: add r12d, 1; shl rax, 4; lea rdi, [r13 + rax + 0x480]; call rdx; 
0x00000000000051ae: add r12d, 1; shl rax, 4; lea rdi, [r13 + rax + 0xe08]; call rdx; 
0x0000000000017cc4: add r12d, 1; shl rax, 4; lea rdi, [rcx + rax + 0xe08]; call rdx; 
0x0000000000017d4a: add r12d, 1; shl rax, 4; lea rdi, [rdi + rax + 0xe08]; call rcx; 
0x0000000000017683: add r12d, 1; shl rcx, 4; lea rdi, [rdi + rcx + 0xe08]; call rax; 
0x0000000000016672: add r13d, 1; shl rax, 4; lea rdi, [r14 + rax + 0x480]; call rdx; 
0x0000000000016732: add r13d, 1; shl rax, 4; lea rdi, [rsi + rax + 0xe08]; xor esi, esi; call rdx; 
0x0000000000005ed7: add r14, 0xe0; shl r14, 4; lea rdx, [r13 + r14 + 8]; call rcx; 
0x00000000000016aa: add r8b, byte ptr [rax]; call 0x12f0; add rsp, 0x40; pop rbx; ret; 
0x0000000000011694: add r9, r8; lea r8, [rsp + 0x34]; call rax; 
0x000000000001ebd8: add rax, 0xc730001; mov rdx, qword ptr [rip + 0x1054b]; add word ptr [rdx + rax*2], 1; ret; 
0x000000000001d3fa: add rax, 3; mov qword ptr [rdi], rdx; ret; 
0x000000000000eacf: add rax, qword ptr [r11]; test r9d, r9d; jne 0xeae7; mov qword ptr [rbp - 0xd8], r11; call rax; 
0x000000000000dc8d: add rax, qword ptr [r13]; call rax; 
0x000000000001deba: add rax, qword ptr [r14]; call rax; 
0x0000000000011f88: add rax, qword ptr [r15]; call rax; 
0x000000000000e0ce: add rax, qword ptr [r15]; test ecx, ecx; jne 0xe0d7; call rax; 
0x000000000000e99b: add rax, qword ptr [r15]; test edx, edx; jne 0xe9a4; call rax; 
0x000000000000e1e3: add rax, qword ptr [r15]; test r11d, r11d; jne 0xe1ed; call rax; 
0x000000000000fa69: add rax, qword ptr [rax]; add byte ptr [rax - 0x77], cl; ret 0x8548; 
0x0000000000011b52: add rax, qword ptr [rbx]; mov rsi, r12; mov edi, ebp; call rax; 
0x000000000001ac45: add rax, qword ptr [rdi + 8]; mov rsi, qword ptr [rsp - 0x10]; sub rax, qword ptr fs:[0]; mov rdi, qword ptr [rsp - 8]; ret; 
0x0000000000014d2a: add rax, qword ptr [rdi + 8]; ret; 
0x000000000000121a: add rax, qword ptr [rdx + 8]; mov qword ptr [rbx + 0x10], rax; add rsp, 0x10; pop rbx; ret; 
0x0000000000016970: add rax, qword ptr [rdx + 8]; pop rbp; pop r12; jmp rax; 
0x0000000000022338: add rax, rcx; ret; 
0x0000000000022335: add rax, rdi; add rax, rcx; ret; 
0x0000000000022563: add rax, rdi; ret; 
0x0000000000014cdc: add rax, rdx; ret; 
0x0000000000022fb5: add rax, rdx; sub rax, rdi; ret; 
0x0000000000011ce8: add rbx, 8; mov rdx, r13; mov rsi, r12; mov edi, ebp; call qword ptr [rax]; 
0x000000000000cc85: add rdi, 0x1c; mov edx, 1; mov esi, 0x81; mov eax, 0xca; syscall; 
0x000000000001d3f6: add rdx, 8; add rax, 3; mov qword ptr [rdi], rdx; ret; 
0x00000000000195d8: add rsi, 1; test al, al; jne 0x195ae; movsx eax, dl; neg eax; ret; 
0x000000000002336c: add rsp, 0x100; sub rax, rdx; ret; 
0x0000000000001222: add rsp, 0x10; pop rbx; ret; 
0x000000000001dcd9: add rsp, 0x110; mov eax, r12d; pop r12; ret; 
0x000000000001db61: add rsp, 0x18; mov edi, r12d; pop rbp; pop r12; jmp rax; 
0x000000000001dbe8: add rsp, 0x18; mov rdx, r12; mov edi, ebp; pop rbp; pop r12; jmp rax; 
0x000000000001a988: add rsp, 0x18; pop rbx; pop rbp; pop r12; pop r13; ret; 
0x000000000001d2aa: add rsp, 0x1d0; pop rbx; pop rbp; pop r12; ret; 
0x000000000001dd7c: add rsp, 0x20; pop rbx; pop rbp; pop r12; ret; 
0x0000000000001433: add rsp, 0x40; pop rbx; pop rbp; pop r12; ret; 
0x00000000000016b2: add rsp, 0x40; pop rbx; ret; 
0x000000000001ad9f: add rsp, 0x48; jmp qword ptr [rax]; 
0x000000000001ad1d: add rsp, 0x58; jmp qword ptr [rax]; 
0x000000000001d117: add rsp, 0x68; pop rbx; pop rbp; pop r12; pop r13; ret; 
0x000000000001c524: add rsp, 0x88; pop rbx; ret; 
0x000000000001ea9f: add rsp, 0x98; pop rbp; pop r12; ret; 
0x000000000001e812: add rsp, 0x98; ret; 
0x000000000001eaba: add rsp, 0x98; xor eax, eax; pop rbp; pop r12; ret; 
0x000000000001ecb1: add rsp, 0xc8; ret; 
0x000000000001f546: add rsp, 0xd0; ret; 
0x0000000000012a31: add rsp, 0xd8; ret; 
0x0000000000016a0d: add rsp, 8; mov eax, 1; pop rbx; pop rbp; ret; 
0x0000000000015081: add rsp, 8; mov eax, r12d; pop rbp; pop r12; ret; 
0x000000000001dfd9: add rsp, 8; mov rax, r12; pop rbx; pop r12; ret; 
0x000000000001d840: add rsp, 8; mov rax, rbp; pop rbx; pop rbp; ret; 
0x0000000000006d0b: add rsp, 8; pop rbx; pop rbp; pop r12; pop r13; ret; 
0x0000000000012be5: add rsp, 8; pop rbx; pop rbp; ret; 
0x000000000001440d: add rsp, 8; ret; 
0x0000000000012bf0: add rsp, 8; xor eax, eax; pop rbx; pop rbp; ret; 
0x000000000001ebe5: add word ptr [rdx + rax*2], 1; ret; 
0x0000000000011ad0: and al, 0x10; call rax; 
0x0000000000011a22: and al, 0x10; cmove rcx, rsi; sub rsp, 8; mov esi, dword ptr [r13 + 0x10]; push qword ptr [rsp + 8]; call rax; 
0x0000000000011acb: and al, 0x10; mov qword ptr [rsp + 0x10], r9; call rax; 
0x000000000001f490: and al, 0x10; mov r10d, 8; mov eax, 0xd; syscall; 
0x000000000001dcb1: and al, 0x10; mov rdi, qword ptr [rsp + 0x18]; call rcx; 
0x000000000001eca6: and al, 0x10; movaps xmmword ptr [rsp], xmm1; call 0x23660; add rsp, 0xc8; ret; 
0x0000000000012a2a: and al, 0x18; call 0x12290; add rsp, 0xd8; ret; 
0x000000000001dcb6: and al, 0x18; call rcx; 
0x0000000000007afd: and al, 0x1d; add eax, dword ptr [rax]; add byte ptr [rdi], cl; xchg eax, ebp; ret 0x8341; 
0x00000000000113ee: and al, 0x20; call rax; 
0x00000000000113e9: and al, 0x20; mov r8, qword ptr [rsp + 0x20]; call rax; 
0x000000000001ad8e: and al, 0x28; mov r11, qword ptr [rsp + 0x30]; mov rdx, qword ptr [rsp + 0x38]; mov rcx, qword ptr [rsp + 0x40]; add rsp, 0x48; jmp qword ptr [rax]; 
0x000000000001ad0c: and al, 0x28; mov r11, qword ptr [rsp + 0x30]; mov rdx, qword ptr [rsp + 0x38]; mov rcx, qword ptr [rsp + 0x40]; add rsp, 0x58; jmp qword ptr [rax]; 
0x000000000001ad93: and al, 0x30; mov rdx, qword ptr [rsp + 0x38]; mov rcx, qword ptr [rsp + 0x40]; add rsp, 0x48; jmp qword ptr [rax]; 
0x000000000001ad11: and al, 0x30; mov rdx, qword ptr [rsp + 0x38]; mov rcx, qword ptr [rsp + 0x40]; add rsp, 0x58; jmp qword ptr [rax]; 
0x000000000001169a: and al, 0x34; call rax; 
0x000000000001ad98: and al, 0x38; mov rcx, qword ptr [rsp + 0x40]; add rsp, 0x48; jmp qword ptr [rax]; 
0x000000000001ad16: and al, 0x38; mov rcx, qword ptr [rsp + 0x40]; add rsp, 0x58; jmp qword ptr [rax]; 
0x000000000001ad9d: and al, 0x40; add rsp, 0x48; jmp qword ptr [rax]; 
0x000000000001ad1b: and al, 0x40; add rsp, 0x58; jmp qword ptr [rax]; 
0x000000000001168c: and al, 0x40; mov r8d, dword ptr [rsi]; mov esi, dword ptr [rbx + 0x10]; add r9, r8; lea r8, [rsp + 0x34]; call rax; 
0x000000000001696e: and al, 0x5b; add rax, qword ptr [rdx + 8]; pop rbp; pop r12; jmp rax; 
0x000000000001ee93: and al, 0xb0; mov esi, 0x10; mov eax, 0x48; syscall; 
0x000000000001eec7: and al, 0xb4; jne 0x1ee89; neg eax; ret; 
0x0000000000006eda: and al, 0xb8; add al, byte ptr [rax]; add byte ptr [rax + 0x29], cl; ret; 
0x0000000000007875: and al, 0xc0; add byte ptr [rax], al; add dh, dh; ret 0x7404; 
0x000000000001ee73: and al, 0xc8; cmp esi, 9; je 0x1ee90; mov eax, 0x48; syscall; 
0x0000000000007868: and al, 0xe8; add eax, dword ptr [rax]; add dh, dh; ret 0x7402; 
0x000000000001ecab: and al, 0xe8; scasd eax, dword ptr [rdi]; add byte ptr [r8], al; add rsp, 0xc8; ret; 
0x000000000001f487: and al, 0xf0; movups xmmword ptr [rsp], xmm6; movups xmmword ptr [rsp + 0x10], xmm7; mov r10d, 8; mov eax, 0xd; syscall; 
0x000000000001ac4c: and al, 0xf0; sub rax, qword ptr fs:[0]; mov rdi, qword ptr [rsp - 8]; ret; 
0x000000000001eef3: and al, 0xf8; mov esi, 0x10; mov eax, 0x48; syscall; 
0x000000000001ac5a: and al, 0xf8; ret; 
0x000000000001f48c: and al, 0xf; adc dword ptr [rsp + 0x10], edi; mov r10d, 8; mov eax, 0xd; syscall; 
0x000000000001e1ce: and al, 0xf; xchg eax, esp; ret 0x2040; 
0x000000000001ef27: and al, 0xfc; jne 0x1eee8; neg eax; ret; 
0x0000000000011a32: and al, 8; call rax; 
0x000000000001dd06: and al, 8; mov qword ptr [rip + 0x113f9], rax; add rsp, 0x110; mov eax, r12d; pop r12; ret; 
0x0000000000014753: and al, 8; mov rax, r12; pop rbx; pop rbp; pop r12; ret; 
0x000000000001ef55: and al, byte ptr [rcx + rcx*4 - 0x3e]; mov rsi, r9; mov edi, 0xffffff9c; mov eax, 0x101; syscall; 
0x00000000000232ba: and al, byte ptr [rsp - 0xb7f68c]; ret 0xc148; 
0x0000000000012273: and bl, ch; test eax, 0x1f0f2e66; test byte ptr [rax], al; add byte ptr [rax], al; add byte ptr [rax], al; ret; 
0x0000000000006365: and byte ptr [rax + 0x29], cl; ret; 
0x0000000000017623: and byte ptr [rax + 0x39], cl; ret 0x840f; 
0x0000000000022fad: and byte ptr [rax + 9], cl; retf 0xf48; mov esp, 0xd00148d2; sub rax, rdi; ret; 
0x000000000001d53c: and byte ptr [rax + rax], bl; add byte ptr [rax - 0x77], cl; ret 0x8348; 
0x0000000000007b9f: and byte ptr [rax - 0x75], cl; sub byte ptr [r8 + 0x39], r9b; ret 0x870f; 
0x000000000000617c: and byte ptr [rax - 0x77], cl; ret; 
0x0000000000003861: and byte ptr [rax - 0x7d], cl; ret; 
0x0000000000018924: and byte ptr [rbp + rcx*4 + 0x43], cl; adc al, ch; push rdx; mov edi, edi; dec dword ptr [rcx - 0x77]; ret; 
0x00000000000180ac: and byte ptr [rbp + rcx*4 + 0x43], cl; adc al, ch; retf 0xff91; dec dword ptr [rcx - 0x77]; ret; 
0x000000000001dd7f: and byte ptr [rbx + 0x5d], bl; pop r12; ret; 
0x00000000000113ea: and byte ptr [rbx + rcx*4 + 0x44], cl; and al, 0x20; call rax; 
0x000000000001f3be: and byte ptr [rbx + rcx*4 + 0x7f], cl; sub byte ptr [rcx - 0x3b76b310], cl; mov rbp, r9; nop; jmp rdx; 
0x00000000000233a0: and byte ptr [rdi + 0x57], dh; movups xmm0, xmmword ptr [rsi]; movups xmm1, xmmword ptr [rsi + rdx - 0x10]; movups xmmword ptr [rdi], xmm0; movups xmmword ptr [rdi + rdx - 0x10], xmm1; ret; 
0x00000000000235a5: and byte ptr [rdi + 0xb], dh; movdqu xmmword ptr [rdi + rdx - 0x10], xmm0; movdqu xmmword ptr [rdi], xmm0; ret; 
0x0000000000023567: and byte ptr [rdi], cl; adc dword ptr [rdi + 0x30], edi; movups xmmword ptr [r11], xmm8; ret; 
0x0000000000003110: and byte ptr [rdi], cl; mov bh, 0x70; cmp byte ptr [rax + 1], cl; ret 0x4166; 
0x00000000000012db: and byte ptr [rdi], cl; xchg eax, ebp; ret 0x3145; 
0x000000000001e0f6: and byte ptr [rdi], cl; xchg eax, ebp; ret 0x3948; 
0x000000000001c258: and byte ptr [rip - 0x1f7cffff], ch; clc; or eax, 1; mov dword ptr [rip + 0x12d14], eax; ret; 
0x0000000000010ae5: and byte ptr [rsi + 0xf], ah; insb byte ptr [rdi], dx; ret; 
0x000000000000821a: and ch, byte ptr [rdi + 2]; add byte ptr [rbp + rcx*4 + 0xd], cl; ret; 
0x0000000000019fb1: and dh, al; sub byte ptr [r9], r8b; ret; 
0x000000000001a01d: and dh, al; sub byte ptr [rcx], al; ret; 
0x000000000000a558: and dh, dh; ret 0xf40; 
0x00000000000137c3: and dword ptr [rax - 0x77], ecx; ret 0x2548; 
0x00000000000228ce: and dword ptr [rcx - 0x77], ecx; ret; 
0x000000000001ac52: and eax, 0; mov rdi, qword ptr [rsp - 8]; ret; 
0x000000000001abfc: and eax, 0; ret; 
0x000000000001deaf: and eax, 0; ud2; mov rax, qword ptr [rbx + 0x10]; add rax, qword ptr [r14]; call rax; 
0x000000000001ea24: and eax, 0x10717; xor eax, eax; pop rbx; pop rbp; pop r12; ret; 
0x00000000000142ec: and eax, 0x10; sub rax, rdx; lea rdi, [rip + 0x1a66d]; mov rbx, rax; call rcx; 
0x000000000001bee3: and eax, 0x117c7; fucomip st(1); push rdx; idiv edi; jmp qword ptr [rsi - 0x7f]; 
0x000000000000d820: and eax, 0x217bb; nop dword ptr [rax]; or byte ptr [rbp + 0x31d], 4; pop rbp; ret; 
0x000000000001e4bb: and eax, 0x410000; cmp eax, 0x410000; je 0x1e4ee; mov eax, 0x101; syscall; 
0x000000000001efc3: and eax, 0x410000; cmp eax, 0x410000; je 0x1efe0; mov eax, 0x101; syscall; 
0x000000000000e66e: and eax, 0x8348df74; ret; 
0x000000000000d71a: and eax, 0xffef8948; adc eax, 0x218bc; xor eax, eax; pop rbp; ret; 
0x000000000001c51a: and eax, 0xffffffc0; mov qword ptr [rip + 0x111e4], rax; add rsp, 0x88; pop rbx; ret; 
0x0000000000022ef4: and eax, 0xffffffc0; sar rdx, cl; test rdx, rdx; je 0x22f10; bsf rax, rdx; ret; 
0x0000000000022e97: and eax, 0xffffffc0; sar rdx, cl; test rdx, rdx; je 0x22f20; bsf rax, rdx; ret; 
0x000000000001c31c: and eax, 0xffffffc7; or eax, 0x10; mov dword ptr [rip + 0x12c54], eax; ret; 
0x000000000001c344: and eax, 0xffffffc7; or eax, 0x18; mov dword ptr [rip + 0x12c2c], eax; ret; 
0x000000000001c2ec: and eax, 0xffffffc7; or eax, 8; mov dword ptr [rip + 0x12c84], eax; ret; 
0x000000000001c25c: and eax, 0xfffffff8; or eax, 1; mov dword ptr [rip + 0x12d14], eax; ret; 
0x000000000001c28c: and eax, 0xfffffff8; or eax, 2; mov dword ptr [rip + 0x12ce4], eax; ret; 
0x000000000001c2b4: and eax, 0xfffffff8; or eax, 3; mov dword ptr [rip + 0x12cbc], eax; ret; 
0x000000000000d8da: and eax, esi; cmp rdi, rax; jne 0xd8e8; pop rbx; ret; 
0x0000000000008c4c: and ecx, dword ptr [rbx + 0x2520d3d]; add byte ptr [rbp - 0x7a7af001], al; add byte ptr [rax], al; add byte ptr [rax - 0x7d], cl; ret; 
0x000000000000d8d7: and edi, esi; and rax, rsi; cmp rdi, rax; jne 0xd8e8; pop rbx; ret; 
0x000000000001ade4: and esp, 0xfffffff0; call 0x14ed0; mov rsp, rbp; pop rbp; ret; 
0x0000000000022ef3: and rax, 0xffffffffffffffc0; sar rdx, cl; test rdx, rdx; je 0x22f10; bsf rax, rdx; ret; 
0x0000000000022e96: and rax, 0xffffffffffffffc0; sar rdx, cl; test rdx, rdx; je 0x22f20; bsf rax, rdx; ret; 
0x000000000000d8d9: and rax, rsi; cmp rdi, rax; jne 0xd8e8; pop rbx; ret; 
0x000000000000d8d6: and rdi, rsi; and rax, rsi; cmp rdi, rax; jne 0xd8e8; pop rbx; ret; 
0x000000000001ade3: and rsp, 0xfffffffffffffff0; call 0x14ed0; mov rsp, rbp; pop rbp; ret; 
0x000000000001a01c: and sil, al; sub byte ptr [rcx], al; ret; 
0x0000000000007af0: bnd call rcx; 
0x000000000002264a: bsf eax, eax; add rax, rdi; add rax, rcx; ret; 
0x0000000000022560: bsf eax, eax; add rax, rdi; ret; 
0x0000000000022570: bsf eax, eax; lea rax, [rax + rdi + 0x10]; ret; 
0x0000000000022580: bsf eax, eax; lea rax, [rax + rdi + 0x20]; ret; 
0x0000000000022550: bsf eax, eax; lea rax, [rax + rdi - 0x10]; ret; 
0x00000000000224af: bsf eax, eax; lea rax, [rdi + rax + 0x30]; ret; 
0x0000000000022c37: bsf eax, eax; mov edx, 0; lea rax, [rdi + rax]; cmp byte ptr [rax], sil; cmovne rax, rdx; ret; 
0x0000000000022329: bsf eax, eax; sub rdx, rax; jbe 0x225d0; add rax, rdi; add rax, rcx; ret; 
0x0000000000022590: bsf eax, eax; sub rdx, rax; jbe 0x225d0; add rax, rdi; ret; 
0x00000000000225a0: bsf eax, eax; sub rdx, rax; jbe 0x225d0; lea rax, [rdi + rax + 0x10]; ret; 
0x00000000000225b0: bsf eax, eax; sub rdx, rax; jbe 0x225d0; lea rax, [rdi + rax + 0x20]; ret; 
0x00000000000225c0: bsf eax, eax; sub rdx, rax; jbe 0x225d0; lea rax, [rdi + rax + 0x30]; ret; 
0x0000000000022e5a: bsf eax, edx; ret; 
0x0000000000022fb2: bsf edx, edx; add rax, rdx; sub rax, rdi; ret; 
0x0000000000020a21: bsf edx, edx; movzx ecx, byte ptr [rsi + rdx]; movzx eax, byte ptr [rdi + rdx]; sub eax, ecx; ret; 
0x0000000000022d60: bsf rax, rax; mov edx, 0; lea rax, [rdi + rax]; cmp byte ptr [rax], sil; cmovne rax, rdx; ret; 
0x0000000000022ea2: bsf rax, rdx; ret; 
0x0000000000022fb1: bsf rdx, rdx; add rax, rdx; sub rax, rdi; ret; 
0x0000000000020a20: bsf rdx, rdx; movzx ecx, byte ptr [rsi + rdx]; movzx eax, byte ptr [rdi + rdx]; sub eax, ecx; ret; 
0x0000000000023173: bts edx, ebx; bsf rdx, rdx; add rax, rdx; sub rax, rdi; ret; 
0x00000000000230d4: bts edx, esi; sar rdx, cl; test rdx, rdx; je 0x230f0; bsf rax, rdx; ret; 
0x0000000000023172: bts rdx, r11; bsf rdx, rdx; add rax, rdx; sub rax, rdi; ret; 
0x00000000000230d3: bts rdx, rsi; sar rdx, cl; test rdx, rdx; je 0x230f0; bsf rax, rdx; ret; 
0x000000000001507c: call 0x1080; add rsp, 8; mov eax, r12d; pop rbp; pop r12; ret; 
0x0000000000014763: call 0x1080; mov rax, r12; pop rbx; pop rbp; pop r12; ret; 
0x0000000000012a2c: call 0x12290; add rsp, 0xd8; ret; 
0x000000000000142e: call 0x12990; add rsp, 0x40; pop rbx; pop rbp; pop r12; ret; 
0x00000000000016ad: call 0x12f0; add rsp, 0x40; pop rbx; ret; 
0x000000000001ade7: call 0x14ed0; mov rsp, rbp; pop rbp; ret; 
0x000000000001cbe1: call 0x1a5e0; mov rsi, r14; mov edi, 0x3001; mov eax, 0x9e; syscall; 
0x0000000000016731: call 0x1c6ea77; shl rax, 4; lea rdi, [rsi + rax + 0xe08]; xor esi, esi; call rdx; 
0x00000000000121d1: call 0x1d790; nop word ptr cs:[rax + rax]; endbr64; ret; 
0x000000000001ea9a: call 0x1e670; add rsp, 0x98; pop rbp; pop r12; ret; 
0x000000000001e804: call 0x1ee50; cmp eax, -1; je 0x1e8e8; add rsp, 0x98; ret; 
0x0000000000019f7b: call 0x1f200; mov qword ptr [rip + 0x1514d], 0; add rsp, 8; ret; 
0x000000000001d62b: call 0x23580; mov qword ptr [rip + 0x11ac1], rax; add rsp, 8; ret; 
0x000000000001ecac: call 0x23660; add rsp, 0xc8; ret; 
0x0000000000007ada: call 0x28760627; mov rdi, r12; shl rax, 4; lea r14, [r12 + rax + 0x480]; mov rdx, r14; call rcx; 
0x00000000000232c4: call 0x48eb1dd9; mov eax, edx; ret; 
0x00000000000012e4: call 0xa460; mov qword ptr [rbx + 0x18], rax; pop rbx; ret; 
0x000000000000f510: call 0xa460; mov qword ptr [rbx + 0x20], rax; pop rbx; ret; 
0x0000000000012101: call 0xffffffff8d49f18f; or eax, 0x1bf55; mov dword ptr [rbp - 0x38], edx; shl rax, 4; lea rdi, [rcx + rax + 0xe08]; call rsi; 
0x000000000000fab7: call 0xffffffffaf1042c0; ret; 
0x0000000000003044: call 0xfffffffff600304c; ret 0x7402; 
0x0000000000003419: call 0xfffffffff6003421; ret 0x7402; 
0x0000000000007869: call 0xfffffffff6007871; ret 0x7402; 
0x000000000001693b: call 0xffffffffff51f643; test eax, eax; je 0x1695e; lea rbx, [rbp + rdx*8]; nop dword ptr [rax]; call qword ptr [rbx]; 
0x0000000000011cf4: call qword ptr [rax]; 
0x0000000000012903: call qword ptr [rbp + 0x53]; 
0x0000000000011b98: call qword ptr [rbx]; 
0x000000000000d71e: call qword ptr [rip + 0x218bc]; xor eax, eax; pop rbp; ret; 
0x0000000000011f69: call qword ptr [rsi]; 
0x00000000000022b0: call rax; 
0x0000000000018301: call rbx; 
0x0000000000005e37: call rcx; 
0x000000000000ec94: call rdi; 
0x0000000000005105: call rdx; 
0x0000000000011879: call rsi; 
0x0000000000001dc3: cdq; ret 2; 
0x000000000001c5ec: clc; adc byte ptr [rcx], al; add bh, dh; ret 0; 
0x000000000001044f: clc; add cl, ch; scasb al, byte ptr [rdi]; idiv bh; jmp qword ptr [rsi + 0x2e]; 
0x000000000001ecdf: clc; add dword ptr [rdi + 0x2d], esi; mov eax, 4; syscall; 
0x000000000001ed7f: clc; add dword ptr [rdi + 0x2d], esi; mov eax, 6; syscall; 
0x000000000001ed2e: clc; add dword ptr [rdi + 0x2e], esi; mov eax, 5; syscall; 
0x000000000000f4ad: clc; add ebx, dword ptr [rbx + 0x5d]; pop r12; ret; 
0x000000000001de25: clc; add ecx, dword ptr [rax + 0xf]; scasd eax, dword ptr [rdi]; ret 0x148; 
0x0000000000022337: clc; add rax, rcx; ret; 
0x000000000000499c: clc; fdiv st(7), st(0); jmp qword ptr [rsi + 0x41]; 
0x000000000001eef4: clc; mov esi, 0x10; mov eax, 0x48; syscall; 
0x0000000000023649: clc; mov qword ptr [rdi], rcx; ret; 
0x00000000000233d7: clc; mov qword ptr [rdi], rsi; ret; 
0x00000000000233cf: clc; mov rsi, qword ptr [rsi]; mov qword ptr [rdi + rdx - 8], rcx; mov qword ptr [rdi], rsi; ret; 
0x00000000000228e3: clc; movzx eax, al; sar rdx, cl; movzx edx, dl; sub eax, edx; ret; 
0x000000000001c25e: clc; or eax, 1; mov dword ptr [rip + 0x12d14], eax; ret; 
0x000000000001c28e: clc; or eax, 2; mov dword ptr [rip + 0x12ce4], eax; ret; 
0x000000000001c2b6: clc; or eax, 3; mov dword ptr [rip + 0x12cbc], eax; ret; 
0x000000000001add6: clc; push qword ptr [rbp + rax + 0x48]; add eax, dword ptr [rdi + 8]; ret; 
0x0000000000014d26: clc; push qword ptr [rsi + rcx + 0x48]; add eax, dword ptr [rdi + 8]; ret; 
0x000000000001ac5b: clc; ret; 
0x0000000000019f61: clc; std; jbe 0x19f70; ret; 
0x000000000001ef28: cld; jne 0x1eee8; neg eax; ret; 
0x0000000000023651: cld; mov dword ptr [rdi], ecx; ret; 
0x00000000000233e5: cld; mov dword ptr [rdi], esi; ret; 
0x00000000000233df: cld; mov esi, dword ptr [rsi]; mov dword ptr [rdi + rdx - 4], ecx; mov dword ptr [rdi], esi; ret; 
0x0000000000023637: cli; add al, 0x73; adc eax, dword ptr [rax + 0x157701fa]; jb 0x23644; mov byte ptr [rdi], cl; ret; 
0x000000000002363c: cli; add dword ptr [rdi + 0x15], esi; jb 0x23644; mov byte ptr [rdi], cl; ret; 
0x00000000000233bf: cli; add dword ptr [rdi + 0x26], esi; jb 0x233ca; movzx ecx, byte ptr [rsi]; mov byte ptr [rdi], cl; ret; 
0x0000000000001153: cli; add dword ptr [rdi + 4], 1; ret; 
0x000000000000924a: cli; add ecx, dword ptr [rdi]; xchg eax, ebp; rol byte ptr [rdx + rdx*8 - 0x72b7f08c], 0x1d; sti; ret 1; 
0x00000000000235a4: cli; and byte ptr [rdi + 0xb], dh; movdqu xmmword ptr [rdi + rdx - 0x10], xmm0; movdqu xmmword ptr [rdi], xmm0; ret; 
0x0000000000014463: cli; cmp byte ptr [rip + 0x1ab31], 0; jne 0x14480; mov r8, qword ptr [rip + 0x1ab2c]; mov rax, r8; ret; 
0x000000000001eed3: cli; cmp esi, 9; je 0x1eef0; mov eax, 0x48; syscall; 
0x000000000001eae3: cli; cmp rdx, 0x7fffffff; mov eax, 0x7fffffff; cmova rdx, rax; mov eax, 0xd9; syscall; 
0x000000000001270d: cli; dec dword ptr [rdi]; test byte ptr [rcx + rax], cl; add byte ptr [rax + 0x39], cl; ret 0xf48; 
0x000000000001cbe2: cli; fcos; dec dword ptr [rcx + rcx*4 - 0xa]; mov edi, 0x3001; mov eax, 0x9e; syscall; 
0x000000000001ae03: cli; lea rax, [rip + 0x1287d]; ret; 
0x000000000001d643: cli; mov dword ptr [rdi + 0x40], 0; xor eax, eax; ret; 
0x000000000001edf3: cli; mov eax, 0x15; syscall; 
0x000000000001edf3: cli; mov eax, 0x15; syscall; cmp rax, -0x1000; ja 0x1ee08; ret; 
0x0000000000023663: cli; mov eax, 0x26; syscall; 
0x0000000000023663: cli; mov eax, 0x26; syscall; cmp rax, -0xfff; jae 0x23674; ret; 
0x000000000001f2e3: cli; mov eax, 0x27; syscall; 
0x000000000001f2e3: cli; mov eax, 0x27; syscall; ret; 
0x000000000001f263: cli; mov eax, 0x3f; syscall; 
0x000000000001f263: cli; mov eax, 0x3f; syscall; cmp rax, -0xfff; jae 0x1f274; ret; 
0x000000000001f233: cli; mov eax, 0xa; syscall; 
0x000000000001f233: cli; mov eax, 0xa; syscall; cmp rax, -0xfff; jae 0x1f244; ret; 
0x000000000001f203: cli; mov eax, 0xb; syscall; 
0x000000000001f203: cli; mov eax, 0xb; syscall; cmp rax, -0xfff; jae 0x1f214; ret; 
0x000000000001df43: cli; mov eax, 0xc; syscall; 
0x000000000000d753: cli; mov eax, 0xffffffff; pop rbp; ret; 
0x000000000001f083: cli; mov eax, 1; syscall; 
0x000000000001f083: cli; mov eax, 1; syscall; cmp rax, -0x1000; ja 0x1f098; ret; 
0x000000000001ee23: cli; mov eax, 3; syscall; 
0x000000000001ee23: cli; mov eax, 3; syscall; cmp rax, -0x1000; ja 0x1ee38; ret; 
0x000000000001edc3: cli; mov eax, 8; syscall; 
0x000000000001edc3: cli; mov eax, 8; syscall; cmp rax, -0x1000; ja 0x1edd8; ret; 
0x0000000000015183: cli; mov eax, dword ptr [rip + 0x19fb6]; pop rbx; ret; 
0x000000000001ecc3: cli; mov eax, dword ptr [rip + 0xe98e]; ret; 
0x000000000001f053: cli; mov r10, rcx; mov eax, 0x11; syscall; 
0x000000000001abe3: cli; mov rax, qword ptr [rax + 8]; ret; 
0x000000000001abf3: cli; mov rax, qword ptr [rax + 8]; sub rax, qword ptr fs:[0]; ret; 
0x000000000001ab23: cli; mov rax, qword ptr [rdi]; cmp rax, rsi; je 0x1ab30; ret; 
0x0000000000014693: cli; mov rax, qword ptr [rip + 0x1a91d]; mov qword ptr [rdi], rax; mov rax, qword ptr [rip + 0x1a923]; mov qword ptr [rsi], rax; ret; 
0x000000000001d603: cli; mov rcx, qword ptr [rip + 0x11add]; cmp rcx, rdi; je 0x1d618; ret; 
0x0000000000019f53: cli; mov rdi, qword ptr [rip + 0x1517d]; lea rax, [rdi - 1]; cmp rax, -3; jbe 0x19f70; ret; 
0x000000000001d91d: cli; mov rdi, rax; cmp rdx, rcx; jae 0x1d908; mov rax, r8; ret; 
0x00000000000228e9: cli; movzx edx, dl; sub eax, edx; ret; 
0x0000000000014cd3: cli; push qword ptr [rcx + rcx + 0x48]; mov eax, dword ptr [rbp + 8]; pop rbp; add rax, rdx; ret; 
0x00000000000121e3: cli; ret; 
0x0000000000001163: cli; sub dword ptr [rdi + 4], 1; ret; 
0x0000000000022ef9: cli; test rdx, rdx; je 0x22f10; bsf rax, rdx; ret; 
0x0000000000022e9c: cli; test rdx, rdx; je 0x22f20; bsf rax, rdx; ret; 
0x00000000000230c8: cli; test rdx, rdx; je 0x230f0; bsf rax, rdx; ret; 
0x0000000000023058: cli; test rdx, rdx; je 0x23100; bsf rax, rdx; ret; 
0x0000000000022fc3: cli; test rsi, rsi; jne 0x22fcd; xor rax, rax; ret; 
0x000000000001f023: cli; xor eax, eax; syscall; 
0x000000000001f023: cli; xor eax, eax; syscall; cmp rax, -0x1000; ja 0x1f038; ret; 
0x000000000001bf47: cmc; idiv bh; jmp qword ptr [rsi - 0x7f]; 
0x000000000000caa7: cmc; or al, 2; add byte ptr [rax - 0x7b], cl; ror byte ptr [rdi], 0x94; ret 0x3948; 
0x000000000001e044: cmc; push rbx; mov rbx, rdi; sub rsp, 0xe8; syscall; 
0x000000000001eaf1: cmova edx, eax; mov eax, 0xd9; syscall; 
0x000000000001eaf1: cmova edx, eax; mov eax, 0xd9; syscall; cmp rax, -0x1000; ja 0x1eb08; ret; 
0x000000000001eaf0: cmova rdx, rax; mov eax, 0xd9; syscall; 
0x000000000001eaf0: cmova rdx, rax; mov eax, 0xd9; syscall; cmp rax, -0x1000; ja 0x1eb08; ret; 
0x0000000000012daa: cmove eax, eax; mov rax, r8; ret; 
0x0000000000014d87: cmove eax, edx; ret; 
0x0000000000011a25: cmove ecx, esi; sub rsp, 8; mov esi, dword ptr [r13 + 0x10]; push qword ptr [rsp + 8]; call rax; 
0x000000000000f50d: cmove edx, eax; call 0xa460; mov qword ptr [rbx + 0x20], rax; pop rbx; ret; 
0x000000000001b0d7: cmove esi, eax; mov eax, 0x9e; syscall; 
0x0000000000012da9: cmove r8, rax; mov rax, r8; ret; 
0x0000000000014d86: cmove rax, rdx; ret; 
0x0000000000011a24: cmove rcx, rsi; sub rsp, 8; mov esi, dword ptr [r13 + 0x10]; push qword ptr [rsp + 8]; call rax; 
0x0000000000022c47: cmovne eax, edx; ret; 
0x0000000000022c46: cmovne rax, rdx; ret; 
0x000000000001ae78: cmp al, byte ptr [rbx - 0x49f0fe05]; jl 0x1aea4; cmp byte ptr [rdi], cl; xchg eax, ebp; ret 0x8941; 
0x0000000000022556: cmp al, dh; ret; 
0x0000000000022555: cmp al, r14b; ret; 
0x000000000000d857: cmp bh, bh; jmp qword ptr [rsi + 0xf]; 
0x00000000000068f8: cmp byte ptr [r8 + 8], 0x2f; jne 0x68bf; leave; mov eax, 1; ret; 
0x0000000000007293: cmp byte ptr [rax + 0x29], cl; ret 0x8d49; 
0x0000000000022597: cmp byte ptr [rax + 1], cl; clc; ret; 
0x0000000000003114: cmp byte ptr [rax + 1], cl; ret 0x4166; 
0x00000000000068f9: cmp byte ptr [rax + 8], 0x2f; jne 0x68bf; leave; mov eax, 1; ret; 
0x000000000001ad99: cmp byte ptr [rax - 0x75], cl; and al, 0x40; add rsp, 0x48; jmp qword ptr [rax]; 
0x000000000001ad17: cmp byte ptr [rax - 0x75], cl; and al, 0x40; add rsp, 0x58; jmp qword ptr [rax]; 
0x00000000000066df: cmp byte ptr [rax - 0x77], cl; ret 0x8948; 
0x0000000000022586: cmp byte ptr [rax], ah; ret; 
0x0000000000022c44: cmp byte ptr [rax], dh; cmovne rax, rdx; ret; 
0x0000000000022576: cmp byte ptr [rax], dl; ret; 
0x0000000000022575: cmp byte ptr [rax], r10b; ret; 
0x0000000000022585: cmp byte ptr [rax], r12b; ret; 
0x0000000000022c43: cmp byte ptr [rax], sil; cmovne rax, rdx; ret; 
0x0000000000017678: cmp byte ptr [rcx + rcx*4 - 0x1f], al; lea rdi, [rip + 0x169dd]; add r12d, 1; shl rcx, 4; lea rdi, [rdi + rcx + 0xe08]; call rax; 
0x00000000000182da: cmp byte ptr [rcx - 0x7d], cl; ret 0x4908; 
0x000000000001ae80: cmp byte ptr [rdi], cl; xchg eax, ebp; ret 0x8941; 
0x0000000000014464: cmp byte ptr [rip + 0x1ab31], 0; jne 0x14480; mov r8, qword ptr [rip + 0x1ab2c]; mov rax, r8; ret; 
0x000000000001393c: cmp ch, 0xff; jmp qword ptr [rsi + 0xf]; 
0x000000000000fd02: cmp cl, byte ptr [rax - 0x7d]; ret 0xf08; 
0x00000000000233be: cmp dl, 1; ja 0x233e9; jb 0x233ca; movzx ecx, byte ptr [rsi]; mov byte ptr [rdi], cl; ret; 
0x000000000002363b: cmp dl, 1; ja 0x23655; jb 0x23644; mov byte ptr [rdi], cl; ret; 
0x00000000000068bb: cmp dword ptr [rax], eax; je 0x68f8; leave; xor eax, eax; ret; 
0x000000000001c27b: cmp dword ptr [rax], edx; je 0x1c2a0; ret; 
0x000000000001c30b: cmp dword ptr [rax], edx; je 0x1c330; ret; 
0x000000000000dc80: cmp dword ptr [rbx + 8], 0x25; jne 0xdc99; mov r14, qword ptr [rbx]; mov rax, qword ptr [rbx + 0x10]; add rax, qword ptr [r13]; call rax; 
0x000000000001ea32: cmp dword ptr [rip + 0x10707], 2; je 0x1ea22; pop rbx; pop rbp; pop r12; ret; 
0x000000000001eec0: cmp dword ptr [rsp - 0x50], 2; mov eax, dword ptr [rsp - 0x4c]; jne 0x1ee89; neg eax; ret; 
0x000000000001ef20: cmp dword ptr [rsp - 8], 2; mov eax, dword ptr [rsp - 4]; jne 0x1eee8; neg eax; ret; 
0x0000000000014d83: cmp eax, -1; cmove rax, rdx; ret; 
0x0000000000014d25: cmp eax, -1; je 0x14d38; add rax, qword ptr [rdi + 8]; ret; 
0x000000000001add5: cmp eax, -1; je 0x1addf; add rax, qword ptr [rdi + 8]; ret; 
0x000000000001e809: cmp eax, -1; je 0x1e8e8; add rsp, 0x98; ret; 
0x0000000000019f60: cmp eax, -3; jbe 0x19f70; ret; 
0x000000000001ea33: cmp eax, 0x10707; add dh, byte ptr [rdi + 0x5b]; pop rbp; pop r12; ret; 
0x0000000000014f21: cmp eax, 0x10a86; mov eax, 0x59; mov rbp, rsp; mov rsi, rbp; syscall; 
0x0000000000019f56: cmp eax, 0x1517d; lea rax, [rdi - 1]; cmp rax, -3; jbe 0x19f70; ret; 
0x00000000000121cc: cmp eax, 0x15b4f; call 0x1d790; nop word ptr cs:[rax + rax]; endbr64; ret; 
0x0000000000017d40: cmp eax, 0x1631b; mov esi, 2; add r12d, 1; shl rax, 4; lea rdi, [rdi + rax + 0xe08]; call rcx; 
0x000000000001767e: cmp eax, 0x169dd; add r12d, 1; shl rcx, 4; lea rdi, [rdi + rcx + 0xe08]; call rax; 
0x0000000000014324: cmp eax, 0x1a63f; call rcx; 
0x00000000000142f6: cmp eax, 0x1a66d; mov rbx, rax; call rcx; 
0x0000000000014465: cmp eax, 0x1ab31; add byte ptr [rbp + 0x13], dh; mov r8, qword ptr [rip + 0x1ab2c]; mov rax, r8; ret; 
0x000000000000cf03: cmp eax, 0x21a60; call rdx; 
0x000000000000cd14: cmp eax, 0x21c4f; call rdx; 
0x00000000000016a8: cmp eax, 0x24c83; call 0x12f0; add rsp, 0x40; pop rbx; ret; 
0x0000000000005ed2: cmp eax, 0x28b11; add r14, 0xe0; shl r14, 4; lea rdx, [r13 + r14 + 8]; call rcx; 
0x000000000001f5f6: cmp eax, 0x315a0000; rcr byte ptr [rbp + 0x41], 0x5c; ret; 
0x000000000001e4c0: cmp eax, 0x410000; je 0x1e4ee; mov eax, 0x101; syscall; 
0x000000000001efc8: cmp eax, 0x410000; je 0x1efe0; mov eax, 0x101; syscall; 
0x000000000001a582: cmp eax, 0xabcd; mov eax, 0x15; syscall; 
0x000000000001e4cf: cmp eax, 0xfffff000; ja 0x1e4e0; ret; 
0x000000000001e790: cmp eax, 0xfffff000; ja 0x1e7a0; ret; 
0x000000000001eafc: cmp eax, 0xfffff000; ja 0x1eb08; ret; 
0x000000000001eceb: cmp eax, 0xfffff000; ja 0x1ecf8; ret; 
0x000000000001ed3a: cmp eax, 0xfffff000; ja 0x1ed48; ret; 
0x000000000001ed8b: cmp eax, 0xfffff000; ja 0x1ed98; ret; 
0x000000000001edcc: cmp eax, 0xfffff000; ja 0x1edd8; ret; 
0x000000000001edfc: cmp eax, 0xfffff000; ja 0x1ee08; ret; 
0x000000000001ee2c: cmp eax, 0xfffff000; ja 0x1ee38; ret; 
0x000000000001ee82: cmp eax, 0xfffff000; ja 0x1eea8; ret; 
0x000000000001eee1: cmp eax, 0xfffff000; ja 0x1ef08; ret; 
0x000000000001ef69: cmp eax, 0xfffff000; ja 0x1efa0; ret; 
0x000000000001efd7: cmp eax, 0xfffff000; ja 0x1f008; ret; 
0x000000000001f029: cmp eax, 0xfffff000; ja 0x1f038; ret; 
0x000000000001f05f: cmp eax, 0xfffff000; ja 0x1f070; ret; 
0x000000000001f08c: cmp eax, 0xfffff000; ja 0x1f098; ret; 
0x000000000001f187: cmp eax, 0xfffff000; ja 0x1f1e8; pop rbx; pop rbp; ret; 
0x000000000001f2af: cmp eax, 0xfffff000; ja 0x1f2d0; hlt; mov edi, edx; mov eax, r8d; syscall; 
0x000000000001eea1: cmp eax, 0xfffff000; jbe 0x1eec0; neg eax; mov dword ptr [rip + 0x10290], eax; mov eax, 0xffffffff; ret; 
0x000000000001ef01: cmp eax, 0xfffff000; jbe 0x1ef20; neg eax; mov dword ptr [rip + 0x10230], eax; mov eax, 0xffffffff; ret; 
0x000000000001f20c: cmp eax, 0xfffff001; jae 0x1f214; ret; 
0x000000000001f23c: cmp eax, 0xfffff001; jae 0x1f244; ret; 
0x000000000001f26c: cmp eax, 0xfffff001; jae 0x1f274; ret; 
0x000000000002366c: cmp eax, 0xfffff001; jae 0x23674; ret; 
0x000000000001ecde: cmp eax, 1; ja 0x1ed10; mov eax, 4; syscall; 
0x000000000001ed2d: cmp eax, 1; ja 0x1ed60; mov eax, 5; syscall; 
0x000000000001ed7e: cmp eax, 1; ja 0x1edb0; mov eax, 6; syscall; 
0x0000000000014dc4: cmp eax, dword ptr [rcx + rsi + 0x10]; jae 0x14d75; xor eax, eax; ret; 
0x000000000000ae37: cmp eax, dword ptr [rdx]; add byte ptr [rax - 0x7b], cl; ror byte ptr [rax + 0xf], 0x44; ret 0x80f6; 
0x000000000001ebd6: cmp eax, dword ptr [rip + 0x1054c]; jae 0x1ebea; mov rdx, qword ptr [rip + 0x1054b]; add word ptr [rdx + rax*2], 1; ret; 
0x0000000000014409: cmp eax, eax; ja 0x14418; add rsp, 8; ret; 
0x000000000001d5f1: cmp eax, ecx; je 0x1d5e0; xor eax, eax; ret; 
0x000000000001ab28: cmp eax, esi; je 0x1ab30; ret; 
0x000000000001b00f: cmp ebx, 3; je 0x1b040; xor esi, esi; mov edi, 0x3003; mov eax, 0x9e; syscall; 
0x000000000001e783: cmp ecx, 1; ja 0x1e7b0; mov eax, 0x106; syscall; 
0x000000000001a015: cmp ecx, dword ptr [rax + 0x18]; ja 0x1a02c; mov qword ptr [rax + 0x20], rcx; mov byte ptr [rax + 0x28], 1; ret; 
0x000000000001a037: cmp ecx, dword ptr [rax + 0x18]; jg 0x1a02c; mov qword ptr [rax + 0x20], rcx; mov byte ptr [rax + 0x28], 1; ret; 
0x000000000001eb86: cmp ecx, dword ptr [rax + 0x28]; jae 0x1eb70; mov eax, 1; ret; 
0x000000000001965b: cmp ecx, eax; je 0x195aa; mov eax, ecx; sub eax, r8d; ret; 
0x00000000000068be: cmp ecx, ecx; xor eax, eax; ret; 
0x000000000001d60c: cmp ecx, edi; je 0x1d618; ret; 
0x0000000000012c3e: cmp ecx, edx; jne 0x12c18; mov eax, dword ptr [rcx]; ret; 
0x000000000001965a: cmp ecx, r8d; je 0x195aa; mov eax, ecx; sub eax, r8d; ret; 
0x000000000001df5b: cmp edi, eax; ja 0x1df80; xor eax, eax; ret; 
0x000000000000d8dd: cmp edi, eax; jne 0xd8e8; pop rbx; ret; 
0x0000000000014cd2: cmp edx, -1; je 0x14ce0; mov rax, qword ptr [rbp + 8]; pop rbp; add rax, rdx; ret; 
0x00000000000235a3: cmp edx, 0x20; ja 0x235b3; movdqu xmmword ptr [rdi + rdx - 0x10], xmm0; movdqu xmmword ptr [rdi], xmm0; ret; 
0x000000000001eae5: cmp edx, 0x7fffffff; mov eax, 0x7fffffff; cmova rdx, rax; mov eax, 0xd9; syscall; 
0x0000000000019fa9: cmp edx, dword ptr [rdi + 0x18]; ja 0x19fc4; mov qword ptr [rdi + 0x20], rdx; mov byte ptr [rdi + 0x28], 1; ret; 
0x0000000000019fcf: cmp edx, dword ptr [rdi + 0x18]; jg 0x19fc4; mov qword ptr [rdi + 0x20], rdx; mov byte ptr [rdi + 0x28], 1; ret; 
0x000000000001d922: cmp edx, ecx; jae 0x1d908; mov rax, r8; ret; 
0x000000000001ee75: cmp esi, 9; je 0x1ee90; mov eax, 0x48; syscall; 
0x000000000001eed4: cmp esi, 9; je 0x1eef0; mov eax, 0x48; syscall; 
0x0000000000003321: cmp esp, dword ptr [rdx + 0x14c0002]; ret 0x8b4d; 
0x00000000000068ba: cmp qword ptr [r8], rax; je 0x68f8; leave; xor eax, eax; ret; 
0x000000000001c27a: cmp qword ptr [rax], rdx; je 0x1c2a0; ret; 
0x000000000001c30a: cmp qword ptr [rax], rdx; je 0x1c330; ret; 
0x0000000000014dc3: cmp r8, qword ptr [rcx + rsi + 0x10]; jae 0x14d75; xor eax, eax; ret; 
0x000000000001ecdd: cmp r8d, 1; ja 0x1ed10; mov eax, 4; syscall; 
0x000000000001ed2c: cmp r8d, 1; ja 0x1ed60; mov eax, 5; syscall; 
0x000000000001ed7d: cmp r8d, 1; ja 0x1edb0; mov eax, 6; syscall; 
0x000000000001e782: cmp r9d, 1; ja 0x1e7b0; mov eax, 0x106; syscall; 
0x000000000001e4ce: cmp rax, -0x1000; ja 0x1e4e0; ret; 
0x000000000001e78f: cmp rax, -0x1000; ja 0x1e7a0; ret; 
0x000000000001eafb: cmp rax, -0x1000; ja 0x1eb08; ret; 
0x000000000001ecea: cmp rax, -0x1000; ja 0x1ecf8; ret; 
0x000000000001ed39: cmp rax, -0x1000; ja 0x1ed48; ret; 
0x000000000001ed8a: cmp rax, -0x1000; ja 0x1ed98; ret; 
0x000000000001edcb: cmp rax, -0x1000; ja 0x1edd8; ret; 
0x000000000001edfb: cmp rax, -0x1000; ja 0x1ee08; ret; 
0x000000000001ee2b: cmp rax, -0x1000; ja 0x1ee38; ret; 
0x000000000001ee81: cmp rax, -0x1000; ja 0x1eea8; ret; 
0x000000000001eee0: cmp rax, -0x1000; ja 0x1ef08; ret; 
0x000000000001ef68: cmp rax, -0x1000; ja 0x1efa0; ret; 
0x000000000001efd6: cmp rax, -0x1000; ja 0x1f008; ret; 
0x000000000001f028: cmp rax, -0x1000; ja 0x1f038; ret; 
0x000000000001f05e: cmp rax, -0x1000; ja 0x1f070; ret; 
0x000000000001f08b: cmp rax, -0x1000; ja 0x1f098; ret; 
0x000000000001f186: cmp rax, -0x1000; ja 0x1f1e8; pop rbx; pop rbp; ret; 
0x000000000001f2ae: cmp rax, -0x1000; ja 0x1f2d0; hlt; mov edi, edx; mov eax, r8d; syscall; 
0x000000000001f20b: cmp rax, -0xfff; jae 0x1f214; ret; 
0x000000000001f23b: cmp rax, -0xfff; jae 0x1f244; ret; 
0x000000000001f26b: cmp rax, -0xfff; jae 0x1f274; ret; 
0x000000000002366b: cmp rax, -0xfff; jae 0x23674; ret; 
0x0000000000014d82: cmp rax, -1; cmove rax, rdx; ret; 
0x0000000000014d24: cmp rax, -1; je 0x14d38; add rax, qword ptr [rdi + 8]; ret; 
0x000000000001add4: cmp rax, -1; je 0x1addf; add rax, qword ptr [rdi + 8]; ret; 
0x0000000000019f5f: cmp rax, -3; jbe 0x19f70; ret; 
0x000000000001ebd5: cmp rax, qword ptr [rip + 0x1054c]; jae 0x1ebea; mov rdx, qword ptr [rip + 0x1054b]; add word ptr [rdx + rax*2], 1; ret; 
0x0000000000014408: cmp rax, r8; ja 0x14418; add rsp, 8; ret; 
0x000000000001d5f0: cmp rax, rcx; je 0x1d5e0; xor eax, eax; ret; 
0x000000000001ab27: cmp rax, rsi; je 0x1ab30; ret; 
0x000000000001a014: cmp rcx, qword ptr [rax + 0x18]; ja 0x1a02c; mov qword ptr [rax + 0x20], rcx; mov byte ptr [rax + 0x28], 1; ret; 
0x000000000001a036: cmp rcx, qword ptr [rax + 0x18]; jg 0x1a02c; mov qword ptr [rax + 0x20], rcx; mov byte ptr [rax + 0x28], 1; ret; 
0x000000000001eb85: cmp rcx, qword ptr [rax + 0x28]; jae 0x1eb70; mov eax, 1; ret; 
0x000000000001d60b: cmp rcx, rdi; je 0x1d618; ret; 
0x0000000000012c3d: cmp rcx, rdx; jne 0x12c18; mov eax, dword ptr [rcx]; ret; 
0x000000000001df5a: cmp rdi, rax; ja 0x1df80; xor eax, eax; ret; 
0x000000000000d8dc: cmp rdi, rax; jne 0xd8e8; pop rbx; ret; 
0x0000000000014cd1: cmp rdx, -1; je 0x14ce0; mov rax, qword ptr [rbp + 8]; pop rbp; add rax, rdx; ret; 
0x00000000000235a2: cmp rdx, 0x20; ja 0x235b3; movdqu xmmword ptr [rdi + rdx - 0x10], xmm0; movdqu xmmword ptr [rdi], xmm0; ret; 
0x000000000001eae4: cmp rdx, 0x7fffffff; mov eax, 0x7fffffff; cmova rdx, rax; mov eax, 0xd9; syscall; 
0x0000000000019fa8: cmp rdx, qword ptr [rdi + 0x18]; ja 0x19fc4; mov qword ptr [rdi + 0x20], rdx; mov byte ptr [rdi + 0x28], 1; ret; 
0x0000000000019fce: cmp rdx, qword ptr [rdi + 0x18]; jg 0x19fc4; mov qword ptr [rdi + 0x20], rdx; mov byte ptr [rdi + 0x28], 1; ret; 
0x000000000001d921: cmp rdx, rcx; jae 0x1d908; mov rax, r8; ret; 
0x0000000000014326: cmpsb byte ptr [rsi], byte ptr [rdi]; add dword ptr [rax], eax; call rcx; 
0x00000000000142f8: cmpsb byte ptr [rsi], byte ptr [rdi]; add dword ptr [rax], eax; mov rbx, rax; call rcx; 
0x000000000001460d: cmpsd dword ptr [rsi], dword ptr [rdi]; test eax, 0x5e410001; ret; 
0x000000000001eaa2: cwde; add byte ptr [rax], al; add byte ptr [rbp + 0x41], bl; pop rsp; ret; 
0x000000000001eabd: cwde; add byte ptr [rax], al; add byte ptr [rcx], dh; rcr byte ptr [rbp + 0x41], 0x5c; ret; 
0x000000000001efa4: cwde; add dword ptr [rcx], eax; add byte ptr [rax - 1], bh; ret; 
0x000000000001e7a4: cwde; or dword ptr [rcx], eax; add byte ptr [rax - 1], bh; ret; 
0x000000000001ee76: dec byte ptr [rcx]; je 0x1ee90; mov eax, 0x48; syscall; 
0x000000000001eed5: dec byte ptr [rcx]; je 0x1eef0; mov eax, 0x48; syscall; 
0x00000000000233ed: dec byte ptr [rdi]; mov bh, 0x36; mov word ptr [rdi + rdx - 2], cx; mov word ptr [rdi], si; ret; 
0x0000000000019f5d: dec dword ptr [r8 - 0x7d]; clc; std; jbe 0x19f70; ret; 
0x000000000000facd: dec dword ptr [rax + 0x29]; ret; 
0x0000000000007452: dec dword ptr [rax + 0x39]; ret; 
0x00000000000127d2: dec dword ptr [rax + 0x63]; ret; 
0x0000000000013b74: dec dword ptr [rax + 9]; ret 0x1075; 
0x0000000000013cf6: dec dword ptr [rax + 9]; ret 0x850f; 
0x0000000000014321: dec dword ptr [rax - 0x73]; cmp eax, 0x1a63f; call rcx; 
0x000000000000cf00: dec dword ptr [rax - 0x73]; cmp eax, 0x21a60; call rdx; 
0x000000000000e468: dec dword ptr [rax - 0x75]; mov byte ptr [r9 - 0x77], r9b; ret 0x8949; 
0x000000000000df23: dec dword ptr [rax - 0x75]; mov byte ptr [r9 - 0x77], r9b; xchg dword ptr [rax], ebx; add al, 0; add byte ptr [rcx - 0x77], cl; ret; 
0x000000000000310c: dec dword ptr [rax - 0x75]; push rax; and byte ptr [rdi], cl; mov bh, 0x70; cmp byte ptr [rax + 1], cl; ret 0x4166; 
0x0000000000007b9b: dec dword ptr [rax - 0x75]; push rbx; and byte ptr [rax - 0x75], cl; sub byte ptr [r8 + 0x39], r9b; ret 0x870f; 
0x000000000001e317: dec dword ptr [rax - 0x77]; fucomip st(0); add byte ptr [rbx], cl; add byte ptr [rax - 0x77], cl; ret 0x8b48; 
0x000000000001adeb: dec dword ptr [rax - 0x77]; in al, dx; pop rbp; ret; 
0x00000000000107d1: dec dword ptr [rax - 0x77]; mov r8b, 0xf; xchg eax, ebp; ret 0x2148; 
0x0000000000014e4e: dec dword ptr [rax - 0x77]; or byte ptr [r8 - 0x77], cl; ret 0x8548; 
0x000000000000eb21: dec dword ptr [rax - 0x77]; ret 0x66e8; 
0x0000000000009ad9: dec dword ptr [rax - 0x77]; ret 0x8548; 
0x0000000000004de5: dec dword ptr [rax - 0x77]; ret 0x8d48; 
0x00000000000116f6: dec dword ptr [rax - 0x77]; ret 0xc148; 
0x0000000000004cb1: dec dword ptr [rax - 0x77]; ret; 
0x0000000000005b76: dec dword ptr [rax - 0x7b]; ror byte ptr [rdi], 0x84; add al, byte ptr [rax]; add byte ptr [rdi + 1], bh; call rax; 
0x000000000001044a: dec dword ptr [rax - 0x7d]; adc al, 0xf8; add cl, ch; scasb al, byte ptr [rdi]; idiv bh; jmp qword ptr [rsi + 0x2e]; 
0x0000000000019f5e: dec dword ptr [rax - 0x7d]; clc; std; jbe 0x19f70; ret; 
0x0000000000003750: dec dword ptr [rax - 0x7d]; ret 0x4001; 
0x0000000000008df8: dec dword ptr [rax - 0x7d]; ret; 
0x0000000000012d86: dec dword ptr [rbp + 0xf]; scasd eax, dword ptr [rdi]; ret 0x8348; 
0x0000000000011b83: dec dword ptr [rbp + r9*4 + 0x74]; ret; 
0x0000000000005bb6: dec dword ptr [rbp + rcx*4 + 0x1d]; ret 0x1e4; 
0x0000000000005195: dec dword ptr [rbp + rcx*4 + 0x2d]; ret; 
0x0000000000011b84: dec dword ptr [rbp + rcx*4 + 0x74]; ret; 
0x00000000000065cd: dec dword ptr [rbp + rcx*4 - 0x7b]; sar dh, 0xff; jmp qword ptr [rsi + 0x48]; 
0x000000000001ce8b: dec dword ptr [rbx + 0x1085a05]; add byte ptr [rax - 0x377c011c], al; sbb byte ptr [rcx + 0x1084e05], cl; add cl, ch; ret; 
0x000000000001c5d7: dec dword ptr [rbx + 0x110be15]; add bh, dh; ret 0; 
0x000000000001c5e9: dec dword ptr [rbx + 0x110f805]; add bh, dh; ret 0; 
0x000000000000f295: dec dword ptr [rbx + 0x1e44c15]; add dh, dh; ret 0xf04; 
0x000000000001ca2f: dec dword ptr [rbx + rcx*4 + 0x52]; or byte ptr [rax - 0x75], cl; adc byte ptr [rax - 0x7d], cl; ret 0x4110; 
0x0000000000003df1: dec dword ptr [rbx - 0x7cb7fbad]; ret; 
0x00000000000073f1: dec dword ptr [rcx + 0x21]; ret 0x394c; 
0x000000000000e111: dec dword ptr [rcx + 0x39]; ret 0x860f; 
0x000000000001f56f: dec dword ptr [rcx + 0xfbca05]; add byte ptr [rcx + rcx*4 - 0x38], al; add rsp, 0xd0; ret; 
0x0000000000014767: dec dword ptr [rcx + rcx*4 - 0x20]; pop rbx; pop rbp; pop r12; ret; 
0x000000000001cbe5: dec dword ptr [rcx + rcx*4 - 0xa]; mov edi, 0x3001; mov eax, 0x9e; syscall; 
0x00000000000072b3: dec dword ptr [rcx - 0x13373]; jmp qword ptr [rsi - 0x7d]; 
0x0000000000019662: dec dword ptr [rcx - 0x3fd6bb38]; ret; 
0x000000000000e570: dec dword ptr [rcx - 0x77]; ret 0x8349; 
0x000000000000bea2: dec dword ptr [rcx - 0x77]; ret; 
0x000000000001270e: dec dword ptr [rdi]; test byte ptr [rcx + rax], cl; add byte ptr [rax + 0x39], cl; ret 0xf48; 
0x000000000001af94: dec dword ptr [rdi]; test dword ptr [rip + 0x48000004], esi; lea esi, [rip + 0x13fde]; mov edi, 0x3005; mov eax, 0x9e; syscall; 
0x0000000000022fc6: div byte ptr [rbp + 4]; xor rax, rax; ret; 
0x0000000000012d31: div byte ptr [rbx + rax + 0x48]; mov dword ptr [rsi], edi; mov rax, r8; ret; 
0x000000000001d5ee: div esi; cmp rax, rcx; je 0x1d5e0; xor eax, eax; ret; 
0x000000000001d5ed: div rsi; cmp rax, rcx; je 0x1d5e0; xor eax, eax; ret; 
0x0000000000001150: endbr64; add dword ptr [rdi + 4], 1; ret; 
0x0000000000014460: endbr64; cmp byte ptr [rip + 0x1ab31], 0; jne 0x14480; mov r8, qword ptr [rip + 0x1ab2c]; mov rax, r8; ret; 
0x000000000001eed0: endbr64; cmp esi, 9; je 0x1eef0; mov eax, 0x48; syscall; 
0x000000000001eae0: endbr64; cmp rdx, 0x7fffffff; mov eax, 0x7fffffff; cmova rdx, rax; mov eax, 0xd9; syscall; 
0x000000000001ae00: endbr64; lea rax, [rip + 0x1287d]; ret; 
0x000000000001d640: endbr64; mov dword ptr [rdi + 0x40], 0; xor eax, eax; ret; 
0x000000000001edf0: endbr64; mov eax, 0x15; syscall; 
0x000000000001edf0: endbr64; mov eax, 0x15; syscall; cmp rax, -0x1000; ja 0x1ee08; ret; 
0x0000000000023660: endbr64; mov eax, 0x26; syscall; 
0x0000000000023660: endbr64; mov eax, 0x26; syscall; cmp rax, -0xfff; jae 0x23674; ret; 
0x000000000001f2e0: endbr64; mov eax, 0x27; syscall; 
0x000000000001f2e0: endbr64; mov eax, 0x27; syscall; ret; 
0x000000000001f260: endbr64; mov eax, 0x3f; syscall; 
0x000000000001f260: endbr64; mov eax, 0x3f; syscall; cmp rax, -0xfff; jae 0x1f274; ret; 
0x000000000001f230: endbr64; mov eax, 0xa; syscall; 
0x000000000001f230: endbr64; mov eax, 0xa; syscall; cmp rax, -0xfff; jae 0x1f244; ret; 
0x000000000001f200: endbr64; mov eax, 0xb; syscall; 
0x000000000001f200: endbr64; mov eax, 0xb; syscall; cmp rax, -0xfff; jae 0x1f214; ret; 
0x000000000001df40: endbr64; mov eax, 0xc; syscall; 
0x000000000000d750: endbr64; mov eax, 0xffffffff; pop rbp; ret; 
0x000000000001f080: endbr64; mov eax, 1; syscall; 
0x000000000001f080: endbr64; mov eax, 1; syscall; cmp rax, -0x1000; ja 0x1f098; ret; 
0x000000000001ee20: endbr64; mov eax, 3; syscall; 
0x000000000001ee20: endbr64; mov eax, 3; syscall; cmp rax, -0x1000; ja 0x1ee38; ret; 
0x000000000001edc0: endbr64; mov eax, 8; syscall; 
0x000000000001edc0: endbr64; mov eax, 8; syscall; cmp rax, -0x1000; ja 0x1edd8; ret; 
0x0000000000015180: endbr64; mov eax, dword ptr [rip + 0x19fb6]; pop rbx; ret; 
0x000000000001ecc0: endbr64; mov eax, dword ptr [rip + 0xe98e]; ret; 
0x000000000001f050: endbr64; mov r10, rcx; mov eax, 0x11; syscall; 
0x000000000001abe0: endbr64; mov rax, qword ptr [rax + 8]; ret; 
0x000000000001abf0: endbr64; mov rax, qword ptr [rax + 8]; sub rax, qword ptr fs:[0]; ret; 
0x000000000001ab20: endbr64; mov rax, qword ptr [rdi]; cmp rax, rsi; je 0x1ab30; ret; 
0x0000000000014690: endbr64; mov rax, qword ptr [rip + 0x1a91d]; mov qword ptr [rdi], rax; mov rax, qword ptr [rip + 0x1a923]; mov qword ptr [rsi], rax; ret; 
0x000000000001d600: endbr64; mov rcx, qword ptr [rip + 0x11add]; cmp rcx, rdi; je 0x1d618; ret; 
0x0000000000019f50: endbr64; mov rdi, qword ptr [rip + 0x1517d]; lea rax, [rdi - 1]; cmp rax, -3; jbe 0x19f70; ret; 
0x00000000000121e0: endbr64; ret; 
0x0000000000001160: endbr64; sub dword ptr [rdi + 4], 1; ret; 
0x0000000000022fc0: endbr64; test rsi, rsi; jne 0x22fcd; xor rax, rax; ret; 
0x000000000001f020: endbr64; xor eax, eax; syscall; 
0x000000000001f020: endbr64; xor eax, eax; syscall; cmp rax, -0x1000; ja 0x1f038; ret; 
0x0000000000012a34: fadd dword ptr [rax]; add byte ptr [rax], al; ret; 
0x0000000000012da6: fadd dword ptr [rcx + rcx*8 - 0x3fbbf0b4]; mov rax, r8; ret; 
0x000000000000b3eb: fcomp dword ptr [rbx + 0x5d]; pop r12; pop r13; pop r14; ret; 
0x000000000001cbe3: fcos; dec dword ptr [rcx + rcx*4 - 0xa]; mov edi, 0x3001; mov eax, 0x9e; syscall; 
0x000000000000499d: fdiv st(7), st(0); jmp qword ptr [rsi + 0x41]; 
0x0000000000007cff: fdivr dword ptr [rsi + 1]; add ebx, 1; shl rax, 4; lea rdi, [r14 + rax + 0xe08]; call rdx; 
0x0000000000007cba: fdivr dword ptr [rsi + 1]; add ebx, 1; shl rax, 4; lea rdi, [r15 + rax + 0x480]; call rdx; 
0x00000000000026e7: fdivr dword ptr [rsi]; jmp rax; 
0x00000000000047a3: fiadd dword ptr [rax]; add bh, al; sbb byte ptr [rax], al; add byte ptr [rax], al; add byte ptr [rax - 0x77], cl; ret; 
0x000000000001971e: ficomp word ptr [rsi]; add byte ptr [rax - 0x39], cl; ret 0xffff; 
0x0000000000005bc7: fidiv dword ptr [rcx]; test byte ptr [rcx + rcx*4 - 0x21], 0x83; ret; 
0x00000000000046c0: fidivr word ptr [rax + 0x9e]; mov edi, 0x1002; mov qword ptr [rbx + 0x10], rbx; syscall; 
0x000000000001af9e: fidivr word ptr [rdi]; add dword ptr [rax], eax; mov edi, 0x3005; mov eax, 0x9e; syscall; 
0x0000000000023175: fimul dword ptr [rax + 0xf]; mov esp, 0xd00148d2; sub rax, rdi; ret; 
0x000000000001f17b: fimul dword ptr [rax - 0x77]; out dx, eax; mov eax, 9; syscall; 
0x00000000000032c0: fimul dword ptr [rbp - 0x75]; sbb dword ptr [rax + 1], ecx; ret; 
0x0000000000014b1e: fisttp dword ptr [rax - 0x7b]; ror byte ptr [rdi], 0x94; ret; 
0x0000000000005e25: fisttp dword ptr [rbp + rcx*4 + 0x2d]; xor eax, dword ptr [rdx + 0x48eb0002]; mov rdx, r14; xor esi, esi; mov rdi, r15; call rcx; 
0x0000000000023362: fisttp qword ptr [rax - 1]; ror byte ptr [rax - 1], 0xc0; inc rax; add rsp, 0x100; sub rax, rdx; ret; 
0x000000000000e670: fisttp word ptr [rax - 0x7d]; ret; 
0x000000000001eaf5: fld dword ptr [rax]; add byte ptr [rax], al; syscall; 
0x000000000001eaf5: fld dword ptr [rax]; add byte ptr [rax], al; syscall; cmp rax, -0x1000; ja 0x1eb08; ret; 
0x000000000000f8cd: fld qword ptr [rcx]; add byte ptr [rax + 0x39], cl; ret 0xf48; 
0x0000000000022499: fldenv [rsi + 0xf]; je 0x224ed; xor byte ptr [rsi + 0xf], ah; xlatb; ret; 
0x0000000000022787: fldenv [rsi + 0xf]; je 0x227db; xor byte ptr [rsi + 0xf], ah; xlatb; ret; 
0x0000000000022391: fldenv [rsi + 0xf]; xlatb; ret; 
0x000000000001de22: fmul dword ptr [rax - 0x3f]; clc; add ecx, dword ptr [rax + 0xf]; scasd eax, dword ptr [rdi]; ret 0x148; 
0x0000000000005e82: fmul dword ptr [rax - 0x77]; ret 0xc148; 
0x000000000001f009: fmul dword ptr [rcx + 0x1013005]; add byte ptr [rax - 1], bh; ret; 
0x000000000001efa1: fmul dword ptr [rcx + 0x1019805]; add byte ptr [rax - 1], bh; ret; 
0x000000000001ef09: fmul dword ptr [rcx + 0x1023005]; add byte ptr [rax - 1], bh; ret; 
0x000000000001eea9: fmul dword ptr [rcx + 0x1029005]; add byte ptr [rax - 1], bh; ret; 
0x000000000001ee39: fmul dword ptr [rcx + 0x1030005]; add byte ptr [rax - 1], bh; ret; 
0x000000000001ee09: fmul dword ptr [rcx + 0x1033005]; add byte ptr [rax - 1], bh; ret; 
0x000000000001ed99: fmul dword ptr [rcx + 0x103a005]; add byte ptr [rax - 1], bh; ret; 
0x000000000001ed49: fmul dword ptr [rcx + 0x103f005]; add byte ptr [rax - 1], bh; ret; 
0x000000000001ecf9: fmul dword ptr [rcx + 0x1044005]; add byte ptr [rax - 1], bh; ret; 
0x000000000001e7a1: fmul dword ptr [rcx + 0x1099805]; add byte ptr [rax - 1], bh; ret; 
0x000000000001e4e1: fmul dword ptr [rcx + 0x10c5805]; add byte ptr [rax - 1], bh; ret; 
0x0000000000009c82: fmul qword ptr [rax - 0x7d]; ret; 
0x000000000001f7e9: fmul qword ptr [rcx - 0x7d]; ret 0x7f10; 
0x000000000001d607: fstp qword ptr [rdx]; add dword ptr [rax], eax; cmp rcx, rdi; je 0x1d618; ret; 
0x0000000000022dbc: fsub qword ptr [rsi + 0xf]; xlatb; ret; 
0x000000000001f82f: fsub st(1), st(0); imul edi, edi, -1; jmp qword ptr [rsi + 0x66]; 
0x000000000001e31a: fucomip st(0); add byte ptr [rbx], cl; add byte ptr [rax - 0x77], cl; ret 0x8b48; 
0x000000000001b1a8: fucomip st(0); xor bl, byte ptr [rdi - 2]; jmp qword ptr [rsi - 0x70]; 
0x000000000001bee8: fucomip st(1); push rdx; idiv edi; jmp qword ptr [rsi - 0x7f]; 
0x000000000001f2b6: hlt; mov edi, edx; mov eax, r8d; syscall; 
0x000000000000374e: idiv bh; dec dword ptr [rax - 0x7d]; ret 0x4001; 
0x0000000000005193: idiv bh; dec dword ptr [rbp + rcx*4 + 0x2d]; ret; 
0x000000000000e668: idiv bh; inc dword ptr [rbx + 0x7425087b]; fisttp word ptr [rax - 0x7d]; ret; 
0x000000000000e623: idiv bh; jmp qword ptr [rsi + 0x2e]; 
0x0000000000003837: idiv bh; jmp qword ptr [rsi + 0xf]; 
0x000000000001bf48: idiv bh; jmp qword ptr [rsi - 0x7f]; 
0x000000000001cbe8: idiv byte ptr [rdi + 0x3001]; mov eax, 0x9e; syscall; 
0x000000000001b015: idiv byte ptr [rdi + 0x3003]; mov eax, 0x9e; syscall; 
0x000000000001740b: idiv edi; jmp qword ptr [rsi - 0x70]; 
0x000000000001beeb: idiv edi; jmp qword ptr [rsi - 0x7f]; 
0x0000000000017680: imul eax, dword ptr [rcx], 0xc4834100; add dword ptr [rax - 0x3f], ecx; loope 0x1768f; lea rdi, [rdi + rcx + 0xe08]; call rax; 
0x000000000001736a: imul eax; adc byte ptr [rbp - 0x7cb70002], bl; ret; 
0x000000000001f831: imul edi, edi, -1; jmp qword ptr [rsi + 0x66]; 
0x000000000001c5d4: imul edi, esi, 0x158bffff; mov esi, 0xf7000110; ret 0; 
0x000000000001c276: imul esi, dword ptr [rbx + 0x73], 0x10394869; je 0x1c2a0; ret; 
0x000000000001c306: imul esi, dword ptr [rbx + 0x73], 0x10394869; je 0x1c330; ret; 
0x00000000000061c6: imul esi, ecx, 0x41e80001; ret 0xffff; 
0x000000000000afac: imul esp, dword ptr [rdx + 0x48], 0x9480733; ret 0x1075; 
0x00000000000068b8: imul esp, dword ptr [rdx + 0x49], 0x39740039; leave; xor eax, eax; ret; 
0x000000000001c520: in al, 0x11; add dword ptr [rax], eax; add rsp, 0x88; pop rbx; ret; 
0x000000000001c294: in al, 0x2c; add dword ptr [rax], eax; ret; 
0x0000000000016a63: in al, 0x48; add esp, 8; xor eax, eax; pop rbx; pop rbp; ret; 
0x00000000000135c6: in al, 0x5b; mov eax, r12d; pop rbp; pop r12; pop r13; ret; 
0x0000000000015515: in al, 0x5b; mov rax, r12; pop rbp; pop r12; pop r13; ret; 
0x0000000000014772: in al, 0x5b; pop rbp; mov rax, r12; pop r12; ret; 
0x0000000000001146: in al, 0x66; nop dword ptr [rax + rax]; endbr64; add dword ptr [rdi + 4], 1; ret; 
0x00000000000232bc: in al, 0x74; or dword ptr [rax - 1], ecx; ret 0xc148; 
0x000000000001ade5: in al, 0xf0; call 0x14ed0; mov rsp, rbp; pop rbp; ret; 
0x0000000000023629: in al, 0xf3; ret; 
0x000000000000879b: in al, 0xff; jmp qword ptr [rsi - 0x70]; 
0x000000000000f299: in al, 1; add dh, dh; ret 0xf04; 
0x0000000000016c42: in al, dx; add eax, dword ptr [rax]; add byte ptr [rax - 0x7d], cl; ror dword ptr [rax], 0x83; ret 0x4801; 
0x0000000000011ac7: in al, dx; or bh, bh; je 0x11af0; adc byte ptr [rcx + rcx*4 + 0x4c], cl; and al, 0x10; call rax; 
0x0000000000011a2a: in al, dx; or byte ptr [rcx - 0x75], al; jne 0x11a40; push qword ptr [rsp + 8]; call rax; 
0x000000000001adee: in al, dx; pop rbp; ret; 
0x000000000001ade2: in eax, 0x48; and esp, 0xfffffff0; call 0x14ed0; mov rsp, rbp; pop rbp; ret; 
0x0000000000014f2d: in eax, 0x48; mov esi, ebp; syscall; 
0x000000000000c132: in eax, 0x89; ret; 
0x000000000001eb8a: in eax, 0xb8; add dword ptr [rax], eax; add byte ptr [rax], al; ret; 
0x000000000001ce94: inc byte ptr [rbx + 0x58918c8]; or byte ptr [rcx], r8b; add cl, ch; ret; 
0x000000000001401c: inc dword ptr [r8 + 0x10]; pop rbx; pop rbp; ret; 
0x000000000001401d: inc dword ptr [rax + 0x10]; pop rbx; pop rbp; ret; 
0x000000000001f142: inc dword ptr [rax]; add byte ptr [rax + rax], cl; add byte ptr [rax], al; pop rbp; pop r12; ret; 
0x0000000000012d2b: inc dword ptr [rbp + 0x31]; ror byte ptr [rax - 0x7b], 0xf6; je 0x12d37; mov qword ptr [rsi], rdi; mov rax, r8; ret; 
0x000000000001693f: inc dword ptr [rbp + 0x481a74c0]; lea ebx, [rbp + rdx*8]; nop dword ptr [rax]; call qword ptr [rbx]; 
0x000000000000e66a: inc dword ptr [rbx + 0x7425087b]; fisttp word ptr [rax - 0x7d]; ret; 
0x000000000001ca4f: inc dword ptr [rbx + rcx*4 + 0x6a]; or byte ptr [rax - 0x75], cl; adc byte ptr [rax - 0x7d], cl; ret 0x4810; 
0x000000000001270b: inc dword ptr [rbx - 0x7bf00006]; add qword ptr [rax], r8; add byte ptr [rax + 0x39], cl; ret 0xf48; 
0x0000000000019538: inc dword ptr [rcx - 0x77]; ret; 
0x000000000000ef11: inc dword ptr [rdx]; add byte ptr [rax], al; add byte ptr [rcx - 0x8f63], cl; dec dword ptr [rax - 0x77]; ret; 
0x000000000002336a: inc eax; add rsp, 0x100; sub rax, rdx; ret; 
0x0000000000023367: inc eax; inc rax; add rsp, 0x100; sub rax, rdx; ret; 
0x0000000000023364: inc eax; inc rax; inc rax; add rsp, 0x100; sub rax, rdx; ret; 
0x000000000001f07e: inc ebx; endbr64; mov eax, 1; syscall; 
0x000000000001edbe: inc ebx; endbr64; mov eax, 8; syscall; 
0x000000000001ede6: inc ebx; nop dword ptr [rax + rax]; endbr64; mov eax, 0x15; syscall; 
0x000000000001ee14: inc ebx; nop word ptr cs:[rax + rax]; endbr64; mov eax, 3; syscall; 
0x000000000001f014: inc ebx; nop word ptr cs:[rax + rax]; endbr64; xor eax, eax; syscall; 
0x000000000001716f: inc edi; sbb byte ptr [rdx], al; add byte ptr [rax], al; add byte ptr [rax - 0x77], cl; ret; 
0x0000000000023369: inc rax; add rsp, 0x100; sub rax, rdx; ret; 
0x0000000000023366: inc rax; inc rax; add rsp, 0x100; sub rax, rdx; ret; 
0x0000000000023363: inc rax; inc rax; inc rax; add rsp, 0x100; sub rax, rdx; ret; 
0x000000000000afab: insb byte ptr [rdi], dx; imul esp, dword ptr [rdx + 0x48], 0x9480733; ret 0x1075; 
0x00000000000068b7: insb byte ptr [rdi], dx; imul esp, dword ptr [rdx + 0x49], 0x39740039; leave; xor eax, eax; ret; 
0x000000000000bc2e: insb byte ptr [rdi], dx; ret 0x290f; 
0x0000000000002655: insb byte ptr [rdi], dx; ret 0x85c7; 
0x0000000000018d9f: insb byte ptr [rdi], dx; ret 0xf41; 
0x000000000000bc81: insb byte ptr [rdi], dx; ret; 
0x0000000000014604: insb byte ptr [rdi], dx; rol dword ptr [rcx + 0x5c], 0x41; pop rbp; movups xmmword ptr [rip + 0x1a9a7], xmm0; pop r14; ret; 
0x0000000000013e9f: insd dword ptr [rdi], dx; add dword ptr [rax], eax; add byte ptr [rax - 0x7d], cl; ret 0x4c08; 
0x00000000000142f7: insd dword ptr [rdi], dx; cmpsb byte ptr [rsi], byte ptr [rdi]; add dword ptr [rax], eax; mov rbx, rax; call rcx; 
0x000000000001c275: insd dword ptr [rdi], dx; imul esi, dword ptr [rbx + 0x73], 0x10394869; je 0x1c2a0; ret; 
0x000000000001c305: insd dword ptr [rdi], dx; imul esi, dword ptr [rbx + 0x73], 0x10394869; je 0x1c330; ret; 
0x0000000000009383: int 0; add byte ptr [rax], al; add byte ptr [rax - 0x7d], cl; ret; 
0x000000000000d74d: int 0x66; nop; endbr64; mov eax, 0xffffffff; pop rbp; ret; 
0x000000000001f3ca: int 0x90; jmp rdx; 
0x000000000001a583: int 0xab; add byte ptr [rax], al; mov eax, 0x15; syscall; 
0x00000000000142cd: int 0xfe; dec dword ptr [rax - 0x77]; ret; 
0x000000000001ecbf: int1; endbr64; mov eax, dword ptr [rip + 0xe98e]; ret; 
0x0000000000014dbe: int1; shl rcx, 4; cmp r8, qword ptr [rcx + rsi + 0x10]; jae 0x14d75; xor eax, eax; ret; 
0x000000000001eb80: int1; sub rcx, qword ptr [rax + 0x10]; cmp rcx, qword ptr [rax + 0x28]; jae 0x1eb70; mov eax, 1; ret; 
0x00000000000111f3: iretd; nop dword ptr [rax]; call rax; 
0x000000000001d627: iretd; sub rdx, rcx; call 0x23580; mov qword ptr [rip + 0x11ac1], rax; add rsp, 8; ret; 
0x00000000000012e5: ja 0x1278; add byte ptr [rax], al; mov qword ptr [rbx + 0x18], rax; pop rbx; ret; 
0x000000000001440b: ja 0x14418; add rsp, 8; ret; 
0x0000000000019fac: ja 0x19fc4; mov qword ptr [rdi + 0x20], rdx; mov byte ptr [rdi + 0x28], 1; ret; 
0x0000000000019fc2: ja 0x19fe4; ret; 
0x000000000001a018: ja 0x1a02c; mov qword ptr [rax + 0x20], rcx; mov byte ptr [rax + 0x28], 1; ret; 
0x000000000001a853: ja 0x1a800; mov rax, qword ptr [r14 + 0x18]; test rax, rax; je 0x1a867; mov rdi, r15; call rax; 
0x000000000001d24e: ja 0x1d250; add byte ptr [rcx + 0x29], cl; ret 0x30eb; 
0x000000000001d723: ja 0x1d6ae; add byte ptr [rax], al; ret; 
0x000000000001df51: ja 0x1df68; mov qword ptr [rip + 0x111b6], rax; cmp rdi, rax; ja 0x1df80; xor eax, eax; ret; 
0x000000000001df5d: ja 0x1df80; xor eax, eax; ret; 
0x000000000001e4d4: ja 0x1e4e0; ret; 
0x000000000001e795: ja 0x1e7a0; ret; 
0x000000000001e786: ja 0x1e7b0; mov eax, 0x106; syscall; 
0x000000000001e786: ja 0x1e7b0; mov eax, 0x106; syscall; cmp rax, -0x1000; ja 0x1e7a0; ret; 
0x000000000001eb01: ja 0x1eb08; ret; 
0x000000000001ecf0: ja 0x1ecf8; ret; 
0x000000000001ece1: ja 0x1ed10; mov eax, 4; syscall; 
0x000000000001ece1: ja 0x1ed10; mov eax, 4; syscall; cmp rax, -0x1000; ja 0x1ecf8; ret; 
0x000000000001ed3f: ja 0x1ed48; ret; 
0x000000000001ed30: ja 0x1ed60; mov eax, 5; syscall; 
0x000000000001ed30: ja 0x1ed60; mov eax, 5; syscall; cmp rax, -0x1000; ja 0x1ed48; ret; 
0x000000000001ed90: ja 0x1ed98; ret; 
0x000000000001ed81: ja 0x1edb0; mov eax, 6; syscall; 
0x000000000001ed81: ja 0x1edb0; mov eax, 6; syscall; cmp rax, -0x1000; ja 0x1ed98; ret; 
0x000000000001edd1: ja 0x1edd8; ret; 
0x000000000001ee01: ja 0x1ee08; ret; 
0x000000000001ee31: ja 0x1ee38; ret; 
0x000000000001ee87: ja 0x1eea8; ret; 
0x000000000001eee6: ja 0x1ef08; ret; 
0x000000000001ef6e: ja 0x1efa0; ret; 
0x000000000001efdc: ja 0x1f008; ret; 
0x000000000001f02e: ja 0x1f038; ret; 
0x000000000001f064: ja 0x1f070; ret; 
0x000000000001f091: ja 0x1f098; ret; 
0x000000000001f18c: ja 0x1f1e8; pop rbx; pop rbp; ret; 
0x000000000001f2b4: ja 0x1f2d0; hlt; mov edi, edx; mov eax, r8d; syscall; 
0x00000000000233c1: ja 0x233e9; jb 0x233ca; movzx ecx, byte ptr [rsi]; mov byte ptr [rdi], cl; ret; 
0x00000000000233a1: ja 0x233fa; movups xmm0, xmmword ptr [rsi]; movups xmm1, xmmword ptr [rsi + rdx - 0x10]; movups xmmword ptr [rdi], xmm0; movups xmmword ptr [rdi + rdx - 0x10], xmm1; ret; 
0x0000000000023566: ja 0x23588; movups xmmword ptr [rdi + 0x30], xmm7; movups xmmword ptr [r11], xmm8; ret; 
0x00000000000235a6: ja 0x235b3; movdqu xmmword ptr [rdi + rdx - 0x10], xmm0; movdqu xmmword ptr [rdi], xmm0; ret; 
0x00000000000235b7: ja 0x235cf; movdqu xmmword ptr [rdi], xmm0; movdqu xmmword ptr [rdi + 0x10], xmm0; movdqu xmmword ptr [rdi + rdx - 0x10], xmm0; movdqu xmmword ptr [rdi + rdx - 0x20], xmm0; ret; 
0x000000000002363e: ja 0x23655; jb 0x23644; mov byte ptr [rdi], cl; ret; 
0x00000000000113e0: jae 0x113f2; mov r9, rbp; push r8; push qword ptr [rsp + 0x20]; mov r8, qword ptr [rsp + 0x20]; call rax; 
0x0000000000011692: jae 0x116a4; add r9, r8; lea r8, [rsp + 0x34]; call rax; 
0x0000000000014dc8: jae 0x14d75; xor eax, eax; ret; 
0x000000000001c278: jae 0x1c2e3; cmp qword ptr [rax], rdx; je 0x1c2a0; ret; 
0x000000000001c308: jae 0x1c373; cmp qword ptr [rax], rdx; je 0x1c330; ret; 
0x000000000001d924: jae 0x1d908; mov rax, r8; ret; 
0x000000000001eb89: jae 0x1eb70; mov eax, 1; ret; 
0x000000000001ebdc: jae 0x1ebea; mov rdx, qword ptr [rip + 0x1054b]; add word ptr [rdx + rax*2], 1; ret; 
0x000000000001f211: jae 0x1f214; ret; 
0x000000000001f241: jae 0x1f244; ret; 
0x000000000001f271: jae 0x1f274; ret; 
0x0000000000023639: jae 0x2364e; cmp dl, 1; ja 0x23655; jb 0x23644; mov byte ptr [rdi], cl; ret; 
0x0000000000023671: jae 0x23674; ret; 
0x0000000000012c38: jb 0x12c48; mov rcx, rax; cmp rcx, rdx; jne 0x12c18; mov eax, dword ptr [rcx]; ret; 
0x0000000000016a62: jb 0x16a48; add rsp, 8; xor eax, eax; pop rbx; pop rbp; ret; 
0x0000000000019fa6: jb 0x19fc4; cmp rdx, qword ptr [rdi + 0x18]; ja 0x19fc4; mov qword ptr [rdi + 0x20], rdx; mov byte ptr [rdi + 0x28], 1; ret; 
0x000000000001a012: jb 0x1a02c; cmp rcx, qword ptr [rax + 0x18]; ja 0x1a02c; mov qword ptr [rax + 0x20], rcx; mov byte ptr [rax + 0x28], 1; ret; 
0x000000000001c274: jb 0x1c2e3; imul esi, dword ptr [rbx + 0x73], 0x10394869; je 0x1c2a0; ret; 
0x000000000001c304: jb 0x1c373; imul esi, dword ptr [rbx + 0x73], 0x10394869; je 0x1c330; ret; 
0x000000000001d6cf: jb 0x1d740; mov word ptr [rax + 4], dx; ret; 
0x000000000001d6ce: jb 0x1d742; outsd dx, dword ptr [rsi]; mov word ptr [rax + 4], dx; ret; 
0x000000000001dcad: jb 0x1dcf7; mov ecx, dword ptr [rsp + 0x10]; mov rdi, qword ptr [rsp + 0x18]; call rcx; 
0x00000000000233c3: jb 0x233ca; movzx ecx, byte ptr [rsi]; mov byte ptr [rdi], cl; ret; 
0x0000000000023640: jb 0x23644; mov byte ptr [rdi], cl; ret; 
0x00000000000068b5: jb 0x68e6; insb byte ptr [rdi], dx; imul esp, dword ptr [rdx + 0x49], 0x39740039; leave; xor eax, eax; ret; 
0x000000000000afa9: jb 0xafda; insb byte ptr [rdi], dx; imul esp, dword ptr [rdx + 0x48], 0x9480733; ret 0x1075; 
0x0000000000014dbd: jbe 0x14db0; shl rcx, 4; cmp r8, qword ptr [rcx + rsi + 0x10]; jae 0x14d75; xor eax, eax; ret; 
0x0000000000019658: jbe 0x19640; cmp ecx, r8d; je 0x195aa; mov eax, ecx; sub eax, r8d; ret; 
0x0000000000019f63: jbe 0x19f70; ret; 
0x0000000000001cbc: jbe 0x1cce; syscall; 
0x000000000001d08a: jbe 0x1d09b; mov dh, 0x44; ret; 
0x000000000001eea6: jbe 0x1eec0; neg eax; mov dword ptr [rip + 0x10290], eax; mov eax, 0xffffffff; ret; 
0x000000000001ef06: jbe 0x1ef20; neg eax; mov dword ptr [rip + 0x10230], eax; mov eax, 0xffffffff; ret; 
0x0000000000022287: jbe 0x22294; movzx ecx, byte ptr [rsi + rdx]; movzx eax, byte ptr [rdi + rdx]; sub eax, ecx; ret; 
0x000000000002232f: jbe 0x225d0; add rax, rdi; add rax, rcx; ret; 
0x0000000000022596: jbe 0x225d0; add rax, rdi; ret; 
0x00000000000225a6: jbe 0x225d0; lea rax, [rdi + rax + 0x10]; ret; 
0x00000000000225b6: jbe 0x225d0; lea rax, [rdi + rax + 0x20]; ret; 
0x00000000000225c6: jbe 0x225d0; lea rax, [rdi + rax + 0x30]; ret; 
0x00000000000113e8: je 0x1140e; and byte ptr [rbx + rcx*4 + 0x44], cl; and al, 0x20; call rax; 
0x0000000000011aca: je 0x11af0; adc byte ptr [rcx + rcx*4 + 0x4c], cl; and al, 0x10; call rax; 
0x0000000000011f82: je 0x11f8d; mov rax, qword ptr [rax + 8]; add rax, qword ptr [r15]; call rax; 
0x00000000000120a4: je 0x120da; mov eax, edx; mov dword ptr [rbp - 0x38], edx; shl rax, 4; lea rdi, [r15 + rax + 0x480]; call rsi; 
0x0000000000012d32: je 0x12d37; mov qword ptr [rsi], rdi; mov rax, r8; ret; 
0x0000000000014019: je 0x1401c; lock inc dword ptr [r8 + 0x10]; pop rbx; pop rbp; ret; 
0x0000000000014cd5: je 0x14ce0; mov rax, qword ptr [rbp + 8]; pop rbp; add rax, rdx; ret; 
0x0000000000014d28: je 0x14d38; add rax, qword ptr [rdi + 8]; ret; 
0x0000000000016942: je 0x1695e; lea rbx, [rbp + rdx*8]; nop dword ptr [rax]; call qword ptr [rbx]; 
0x0000000000016a0b: je 0x16a24; add rsp, 8; mov eax, 1; pop rbx; pop rbp; ret; 
0x000000000001746f: je 0x17530; mov eax, ebx; add ebx, 1; shl rax, 4; lea rdi, [r12 + rax + 0x480]; call rcx; 
0x000000000001965d: je 0x195aa; mov eax, ecx; sub eax, r8d; ret; 
0x000000000001a62e: je 0x1a640; lea rdi, [rcx + rsi + 0x20]; jmp rdx; 
0x000000000001a629: je 0x1a640; test rdx, rdx; je 0x1a640; lea rdi, [rcx + rsi + 0x20]; jmp rdx; 
0x000000000001a85c: je 0x1a867; mov rdi, r15; call rax; 
0x000000000001ab2a: je 0x1ab30; ret; 
0x000000000001abc0: je 0x1abc8; mov rdi, qword ptr [rbp]; call rax; 
0x000000000001ac43: je 0x1ac5d; add rax, qword ptr [rdi + 8]; mov rsi, qword ptr [rsp - 0x10]; sub rax, qword ptr fs:[0]; mov rdi, qword ptr [rsp - 8]; ret; 
0x000000000001ac4b: je 0x1ac71; lock sub rax, qword ptr fs:[0]; mov rdi, qword ptr [rsp - 8]; ret; 
0x000000000001add8: je 0x1addf; add rax, qword ptr [rdi + 8]; ret; 
0x000000000001b012: je 0x1b040; xor esi, esi; mov edi, 0x3003; mov eax, 0x9e; syscall; 
0x000000000001c27d: je 0x1c2a0; ret; 
0x000000000001c30d: je 0x1c330; ret; 
0x000000000001d5f3: je 0x1d5e0; xor eax, eax; ret; 
0x000000000001d60e: je 0x1d618; ret; 
0x0000000000001dce: je 0x1dd6; mov eax, dword ptr [rbx]; test eax, eax; jne 0x1de0; pop rbx; ret; 
0x000000000001e4c5: je 0x1e4ee; mov eax, 0x101; syscall; 
0x000000000001e4c5: je 0x1e4ee; mov eax, 0x101; syscall; cmp rax, -0x1000; ja 0x1e4e0; ret; 
0x000000000001e80c: je 0x1e8e8; add rsp, 0x98; ret; 
0x000000000001ea39: je 0x1ea22; pop rbx; pop rbp; pop r12; ret; 
0x000000000001ee78: je 0x1ee90; mov eax, 0x48; syscall; 
0x000000000001ee78: je 0x1ee90; mov eax, 0x48; syscall; cmp rax, -0x1000; ja 0x1eea8; ret; 
0x000000000001eed7: je 0x1eef0; mov eax, 0x48; syscall; 
0x000000000001eed7: je 0x1eef0; mov eax, 0x48; syscall; cmp rax, -0x1000; ja 0x1ef08; ret; 
0x000000000001ef54: je 0x1ef78; mov edx, r8d; mov rsi, r9; mov edi, 0xffffff9c; mov eax, 0x101; syscall; 
0x000000000001efcd: je 0x1efe0; mov eax, 0x101; syscall; 
0x000000000001efcd: je 0x1efe0; mov eax, 0x101; syscall; cmp rax, -0x1000; ja 0x1f008; ret; 
0x000000000001f177: je 0x1f1b0; mov r10d, ebx; mov rdi, rbp; mov eax, 9; syscall; 
0x000000000002249c: je 0x224ed; xor byte ptr [rsi + 0xf], ah; xlatb; ret; 
0x000000000002253e: je 0x2258f; adc byte ptr [rsi + 0xf], ah; xlatb; rol dword ptr [rbp + 0x315775c0], 0xc0; ret; 
0x0000000000022648: je 0x22660; bsf eax, eax; add rax, rdi; add rax, rcx; ret; 
0x000000000002278a: je 0x227db; xor byte ptr [rsi + 0xf], ah; xlatb; ret; 
0x0000000000022e50: je 0x22e32; pmovmskb edx, xmm4; test edx, edx; je 0x22e5e; bsf eax, edx; ret; 
0x0000000000022e58: je 0x22e5e; bsf eax, edx; ret; 
0x0000000000022efd: je 0x22f10; bsf rax, rdx; ret; 
0x0000000000022ea0: je 0x22f20; bsf rax, rdx; ret; 
0x00000000000230c4: je 0x230d3; sar rdx, cl; test rdx, rdx; je 0x230f0; bsf rax, rdx; ret; 
0x0000000000023054: je 0x230d3; sar rdx, cl; test rdx, rdx; je 0x23100; bsf rax, rdx; ret; 
0x00000000000230cc: je 0x230f0; bsf rax, rdx; ret; 
0x000000000002305c: je 0x23100; bsf rax, rdx; ret; 
0x0000000000023447: je 0x23460; ror byte ptr [rdi], 1; adc dword ptr [rdi + rdx - 0x40], edi; ret; 
0x0000000000005b7a: je 0x5dca; mov edi, 1; call rax; 
0x00000000000068bd: je 0x68f8; leave; xor eax, eax; ret; 
0x000000000000cd0c: je 0xcf01; lea rdi, [rip + 0x21c4f]; call rdx; 
0x0000000000019fd2: jg 0x19fc4; mov qword ptr [rdi + 0x20], rdx; mov byte ptr [rdi + 0x28], 1; ret; 
0x000000000001a03a: jg 0x1a02c; mov qword ptr [rax + 0x20], rcx; mov byte ptr [rax + 0x28], 1; ret; 
0x000000000001eaef: jg 0x1eb39; cmova edx, eax; mov eax, 0xd9; syscall; 
0x000000000001f3c1: jg 0x1f3eb; mov eax, esi; mov rsp, r8; mov rbp, r9; nop; jmp rdx; 
0x000000000002356a: jg 0x2359c; movups xmmword ptr [r11], xmm8; ret; 
0x00000000000235b0: jg 0x235b9; ret; 
0x00000000000235bb: jg 0x235c4; movdqu xmmword ptr [rdi + 0x10], xmm0; movdqu xmmword ptr [rdi + rdx - 0x10], xmm0; movdqu xmmword ptr [rdi + rdx - 0x20], xmm0; ret; 
0x00000000000235bf: jg 0x23608; adc bl, dh; movq qword ptr [rdi + rdx - 0x10], mm0; movdqu xmmword ptr [rdi + rdx - 0x20], xmm0; ret; 
0x0000000000019f57: jge 0x19faa; add dword ptr [rax], eax; lea rax, [rdi - 1]; cmp rax, -3; jbe 0x19f70; ret; 
0x000000000001abc4: jge 0x1abc6; call rax; 
0x000000000001ae07: jge 0x1ae31; add dword ptr [rax], eax; ret; 
0x00000000000022ae: jge 0x2268; call rax; 
0x0000000000023055: jge 0x2309f; sar edx, cl; test rdx, rdx; je 0x23100; bsf rax, rdx; ret; 
0x000000000000a1bc: jge 0xa186; add byte ptr [rax - 0x77], cl; ret; 
0x000000000001168b: jl 0x116b1; mov r8d, dword ptr [rsi]; mov esi, dword ptr [rbx + 0x10]; add r9, r8; lea r8, [rsp + 0x34]; call rax; 
0x0000000000019fcc: jl 0x19fc4; cmp rdx, qword ptr [rdi + 0x18]; jg 0x19fc4; mov qword ptr [rdi + 0x20], rdx; mov byte ptr [rdi + 0x28], 1; ret; 
0x000000000001a034: jl 0x1a02c; cmp rcx, qword ptr [rax + 0x18]; jg 0x1a02c; mov qword ptr [rax + 0x20], rcx; mov byte ptr [rax + 0x28], 1; ret; 
0x000000000001ac59: jl 0x1ac7f; clc; ret; 
0x000000000001ae76: jl 0x1ae9c; cmp al, byte ptr [rbx - 0x49f0fe05]; jl 0x1aea4; cmp byte ptr [rdi], cl; xchg eax, ebp; ret 0x8941; 
0x000000000001ae7e: jl 0x1aea4; cmp byte ptr [rdi], cl; xchg eax, ebp; ret 0x8941; 
0x000000000001eec1: jl 0x1eee7; mov al, 2; mov eax, dword ptr [rsp - 0x4c]; jne 0x1ee89; neg eax; ret; 
0x000000000001f48f: jl 0x1f4b5; adc byte ptr [rcx - 0x46], al; or byte ptr [rax], al; add byte ptr [rax], al; mov eax, 0xd; syscall; 
0x000000000000bc29: jl 0xbc4f; xor byte ptr [rsi + 0xf], ah; insb byte ptr [rdi], dx; ret 0x290f; 
0x000000000001926e: jle 0x1926e; jmp qword ptr [rsi + 0xf]; 
0x0000000000022ea1: jle 0x22eeb; bsf eax, edx; ret; 
0x0000000000003983: jmp qword ptr [rax]; 
0x000000000001742d: jmp qword ptr [rbx + 1]; 
0x000000000000bddd: jmp qword ptr [rcx]; 
0x0000000000013729: jmp qword ptr [rdi + 0x6d]; 
0x0000000000001b25: jmp qword ptr [rsi + 0x2e]; 
0x00000000000018a7: jmp qword ptr [rsi + 0x41]; 
0x0000000000002619: jmp qword ptr [rsi + 0x48]; 
0x000000000000651a: jmp qword ptr [rsi + 0x49]; 
0x00000000000082a3: jmp qword ptr [rsi + 0x66]; 
0x00000000000014b6: jmp qword ptr [rsi + 0xf]; 
0x00000000000018dd: jmp qword ptr [rsi - 0x70]; 
0x000000000000e4d6: jmp qword ptr [rsi - 0x7b]; 
0x00000000000072b9: jmp qword ptr [rsi - 0x7d]; 
0x000000000000b02f: jmp qword ptr [rsi - 0x7f]; 
0x00000000000026e9: jmp rax; 
0x00000000000182d5: jmp rbx; 
0x000000000001cfbf: jmp rcx; 
0x0000000000002e10: jmp rdx; 
0x0000000000001145: jmp rsp; 
0x00000000000111db: jne 0x111e0; mov qword ptr [rbx], rax; add rsp, 0x10; pop rbx; ret; 
0x0000000000011a2e: jne 0x11a40; push qword ptr [rsp + 8]; call rax; 
0x000000000001236c: jne 0x122e8; movsxd rdx, ebx; mov edi, dword ptr [rbp - 0x460]; lea rsi, [rbp - 0x430]; mov eax, 0x14; syscall; 
0x0000000000012bde: jne 0x12bc8; mov eax, 1; add rsp, 8; pop rbx; pop rbp; ret; 
0x0000000000012c40: jne 0x12c18; mov eax, dword ptr [rcx]; ret; 
0x0000000000014372: jne 0x14380; lea rax, [r8 + 1]; mov qword ptr [rip + 0x1ac21], rax; ret; 
0x000000000001446b: jne 0x14480; mov r8, qword ptr [rip + 0x1ab2c]; mov rax, r8; ret; 
0x0000000000015165: jne 0x15180; mov qword ptr [rbx], 0; pop rbx; or dword ptr [rip + 0x19e22], 1; ret; 
0x0000000000017e81: jne 0x17e88; ret; 
0x00000000000195de: jne 0x195ae; movsx eax, dl; neg eax; ret; 
0x000000000001abb7: jne 0x1aba0; mov rax, qword ptr [rbp + 0x18]; test rax, rax; je 0x1abc8; mov rdi, qword ptr [rbp]; call rax; 
0x000000000001af95: jne 0x1b3d0; lea rsi, [rip + 0x13fde]; mov edi, 0x3005; mov eax, 0x9e; syscall; 
0x000000000001c284: jne 0x1c24e; mov eax, dword ptr [rip + 0x12cf0]; and eax, 0xfffffff8; or eax, 2; mov dword ptr [rip + 0x12ce4], eax; ret; 
0x000000000001c254: jne 0x1c270; mov eax, dword ptr [rip + 0x12d20]; and eax, 0xfffffff8; or eax, 1; mov dword ptr [rip + 0x12d14], eax; ret; 
0x000000000001c2ac: jne 0x1c27f; mov eax, dword ptr [rip + 0x12cc8]; and eax, 0xfffffff8; or eax, 3; mov dword ptr [rip + 0x12cbc], eax; ret; 
0x000000000001c314: jne 0x1c2de; mov eax, dword ptr [rip + 0x12c60]; and eax, 0xffffffc7; or eax, 0x10; mov dword ptr [rip + 0x12c54], eax; ret; 
0x000000000001c2e4: jne 0x1c300; mov eax, dword ptr [rip + 0x12c90]; and eax, 0xffffffc7; or eax, 8; mov dword ptr [rip + 0x12c84], eax; ret; 
0x000000000001c33c: jne 0x1c30f; mov eax, dword ptr [rip + 0x12c38]; and eax, 0xffffffc7; or eax, 0x18; mov dword ptr [rip + 0x12c2c], eax; ret; 
0x000000000001d32d: jne 0x1d2df; add rsp, 0x1d0; pop rbx; pop rbp; pop r12; ret; 
0x000000000001d3f4: jne 0x1d3d8; add rdx, 8; add rax, 3; mov qword ptr [rdi], rdx; ret; 
0x000000000001d983: jne 0x1d978; mov byte ptr [rcx], 0; lea rax, [rcx + 1]; mov qword ptr [rdi], rax; mov rax, r8; ret; 
0x000000000001db5f: jne 0x1db61; add rsp, 0x18; mov edi, r12d; pop rbp; pop r12; jmp rax; 
0x000000000001dcac: jne 0x1dd20; mov rcx, qword ptr [rsp + 0x10]; mov rdi, qword ptr [rsp + 0x18]; call rcx; 
0x0000000000001dd4: jne 0x1de0; pop rbx; ret; 
0x000000000001eec9: jne 0x1ee89; neg eax; ret; 
0x000000000001ef29: jne 0x1eee8; neg eax; ret; 
0x00000000000022a2: jne 0x2244; mov qword ptr [rbp - 0x58], rdx; mov qword ptr [rbp - 0x50], rcx; mov qword ptr [rbp - 0x48], rdi; call rax; 
0x00000000000224a5: jne 0x22580; pmovmskb eax, xmm1; bsf eax, eax; lea rax, [rdi + rax + 0x30]; ret; 
0x0000000000022547: jne 0x225a0; xor eax, eax; ret; 
0x0000000000022517: jne 0x225c0; xor eax, eax; ret; 
0x0000000000022793: jne 0x227e0; pmovmskb eax, xmm1; bsf eax, eax; lea rax, [rdi + rax + 0x30]; ret; 
0x0000000000022fc7: jne 0x22fcd; xor rax, rax; ret; 
0x00000000000068fd: jne 0x68bf; leave; mov eax, 1; ret; 
0x0000000000007add: jne 0x7b07; mov rdi, r12; shl rax, 4; lea r14, [r12 + rax + 0x480]; mov rdx, r14; call rcx; 
0x0000000000009ad7: jne 0x9ad8; dec dword ptr [rax - 0x77]; ret 0x8548; 
0x000000000000afa7: jne 0xb01c; jb 0xafda; insb byte ptr [rdi], dx; imul esp, dword ptr [rdx + 0x48], 0x9480733; ret 0x1075; 
0x000000000000d719: jne 0xd740; mov rdi, rbp; call qword ptr [rip + 0x218bc]; xor eax, eax; pop rbp; ret; 
0x000000000000d8df: jne 0xd8e8; pop rbx; ret; 
0x000000000000dc84: jne 0xdc99; mov r14, qword ptr [rbx]; mov rax, qword ptr [rbx + 0x10]; add rax, qword ptr [r13]; call rax; 
0x000000000000e0d3: jne 0xe0d7; call rax; 
0x000000000000e1e9: jne 0xe1ed; call rax; 
0x000000000000e9a0: jne 0xe9a4; call rax; 
0x000000000000ead5: jne 0xeae7; mov qword ptr [rbp - 0xd8], r11; call rax; 
0x00000000000234e7: jno 0x234d9; movups xmmword ptr [rcx - 0x20], xmm7; movups xmmword ptr [rcx - 0x30], xmm8; movups xmmword ptr [r11], xmm4; ret; 
0x000000000000e66c: jnp 0xe676; and eax, 0x8348df74; ret; 
0x00000000000234eb: jns 0x234cd; movups xmmword ptr [rcx - 0x30], xmm8; movups xmmword ptr [r11], xmm4; ret; 
0x000000000001a02a: jo 0x1a04c; ret; 
0x000000000001c272: jo 0x1c2d9; jb 0x1c2e3; imul esi, dword ptr [rbx + 0x73], 0x10394869; je 0x1c2a0; ret; 
0x000000000001c302: jo 0x1c369; jb 0x1c373; imul esi, dword ptr [rbx + 0x73], 0x10394869; je 0x1c330; ret; 
0x000000000001f53c: jo 0x1f5a6; movups xmmword ptr [r8 + 0x78], xmm7; mov eax, r9d; add rsp, 0xd0; ret; 
0x0000000000009d6d: jo 0x9d30; add byte ptr [rax - 0x77], cl; ret 0x8348; 
0x0000000000009248: jo 0xffffffff950f9648; rol byte ptr [rdx + rdx*8 - 0x72b7f08c], 0x1d; sti; ret 1; 
0x000000000001e01b: js 0x1dfd2; add rsp, 8; mov rax, r12; pop rbx; pop r12; ret; 
0x000000000001f542: js 0x1f588; mov eax, ecx; add rsp, 0xd0; ret; 
0x000000000001f541: js 0x1f5bb; mov eax, r9d; add rsp, 0xd0; ret; 
0x0000000000015187: lahf; add dword ptr [rax], eax; pop rbx; ret; 
0x0000000000017e7c: lahf; push rdi; add dword ptr [rax], eax; jne 0x17e88; ret; 
0x0000000000014375: lea eax, [rax + 1]; mov qword ptr [rip + 0x1ac21], rax; ret; 
0x0000000000022574: lea eax, [rax + rdi + 0x10]; ret; 
0x0000000000022584: lea eax, [rax + rdi + 0x20]; ret; 
0x0000000000022554: lea eax, [rax + rdi - 0x10]; ret; 
0x000000000000d133: lea eax, [rax + rdx*4]; mov dword ptr [rdi + 0x2f4], edx; mov qword ptr [rdi + 0x308], rax; ret; 
0x000000000000d101: lea eax, [rax + rdx*4]; mov dword ptr [rdi + 0x2fc], ecx; mov qword ptr [rdi + 0x310], rax; ret; 
0x000000000001d989: lea eax, [rcx + 1]; mov qword ptr [rdi], rax; mov rax, r8; ret; 
0x00000000000225a9: lea eax, [rdi + rax + 0x10]; ret; 
0x00000000000225b9: lea eax, [rdi + rax + 0x20]; ret; 
0x00000000000224b3: lea eax, [rdi + rax + 0x30]; ret; 
0x0000000000022c40: lea eax, [rdi + rax]; cmp byte ptr [rax], sil; cmovne rax, rdx; ret; 
0x0000000000019f5c: lea eax, [rdi - 1]; cmp rax, -3; jbe 0x19f70; ret; 
0x000000000001ebd2: lea eax, [rdx + rcx]; cmp rax, qword ptr [rip + 0x1054c]; jae 0x1ebea; mov rdx, qword ptr [rip + 0x1054b]; add word ptr [rdx + rax*2], 1; ret; 
0x000000000001ae05: lea eax, [rip + 0x1287d]; ret; 
0x000000000001d721: lea eax, [rip + 0x8977]; ret; 
0x000000000001d6f1: lea eax, [rip + 0x89be]; ret; 
0x000000000001d731: lea eax, [rip + 0x89d5]; ret; 
0x000000000001d701: lea eax, [rip + 0x89e0]; ret; 
0x000000000001d711: lea eax, [rip + 0x89e3]; ret; 
0x000000000001d6e1: lea eax, [rip + 0x89e8]; ret; 
0x0000000000011698: lea eax, [rsp + 0x34]; call rax; 
0x0000000000016945: lea ebx, [rbp + rdx*8]; nop dword ptr [rax]; call qword ptr [rbx]; 
0x000000000000d829: lea ebx, [rip + 0x4000003]; pop rbp; ret; 
0x000000000000d731: lea ebx, [rip + 0x4000003]; xor eax, eax; pop rbp; ret; 
0x0000000000017cbc: lea ecx, [rip + 0x1639e]; xor esi, esi; add r12d, 1; shl rax, 4; lea rdi, [rcx + rax + 0xe08]; call rdx; 
0x0000000000012105: lea ecx, [rip + 0x1bf55]; mov dword ptr [rbp - 0x38], edx; shl rax, 4; lea rdi, [rcx + rax + 0xe08]; call rsi; 
0x0000000000023675: lea ecx, [rip + 0xbac5]; neg eax; mov dword ptr [rcx], eax; or rax, 0xffffffffffffffff; ret; 
0x000000000001f275: lea ecx, [rip + 0xfec5]; neg eax; mov dword ptr [rcx], eax; or rax, 0xffffffffffffffff; ret; 
0x000000000001f245: lea ecx, [rip + 0xfef5]; neg eax; mov dword ptr [rcx], eax; or rax, 0xffffffffffffffff; ret; 
0x000000000001f215: lea ecx, [rip + 0xff25]; neg eax; mov dword ptr [rcx], eax; or rax, 0xffffffffffffffff; ret; 
0x0000000000012237: lea ecx, [rip - 0x5d]; mov qword ptr [rax + 0x10], rcx; mov qword ptr [rax + 8], rdx; ret; 
0x0000000000017ad8: lea edi, [rbp + rax + 0x480]; call rcx; 
0x00000000000050fe: lea edi, [rbp + rax + 0x480]; call rdx; 
0x00000000000051b7: lea edi, [rbp + rax + 0xe08]; call rdx; 
0x0000000000017ccd: lea edi, [rcx + rax + 0xe08]; call rdx; 
0x0000000000012113: lea edi, [rcx + rax + 0xe08]; call rsi; 
0x000000000001a631: lea edi, [rcx + rsi + 0x20]; jmp rdx; 
0x0000000000007cc8: lea edi, [rdi + rax + 0x480]; call rdx; 
0x00000000000120b0: lea edi, [rdi + rax + 0x480]; call rsi; 
0x0000000000017d53: lea edi, [rdi + rax + 0xe08]; call rcx; 
0x000000000001768c: lea edi, [rdi + rcx + 0xe08]; call rax; 
0x0000000000014f20: lea edi, [rip + 0x10a86]; mov eax, 0x59; mov rbp, rsp; mov rsi, rbp; syscall; 
0x00000000000121cb: lea edi, [rip + 0x15b4f]; call 0x1d790; nop word ptr cs:[rax + rax]; endbr64; ret; 
0x0000000000017d3f: lea edi, [rip + 0x1631b]; mov esi, 2; add r12d, 1; shl rax, 4; lea rdi, [rdi + rax + 0xe08]; call rcx; 
0x000000000001767d: lea edi, [rip + 0x169dd]; add r12d, 1; shl rcx, 4; lea rdi, [rdi + rcx + 0xe08]; call rax; 
0x0000000000014323: lea edi, [rip + 0x1a63f]; call rcx; 
0x00000000000142f5: lea edi, [rip + 0x1a66d]; mov rbx, rax; call rcx; 
0x000000000000cf02: lea edi, [rip + 0x21a60]; call rdx; 
0x000000000000cd13: lea edi, [rip + 0x21c4f]; call rdx; 
0x00000000000016a7: lea edi, [rip + 0x24c83]; call 0x12f0; add rsp, 0x40; pop rbx; ret; 
0x0000000000005ed1: lea edi, [rip + 0x28b11]; add r14, 0xe0; shl r14, 4; lea rdx, [r13 + r14 + 8]; call rcx; 
0x000000000001a581: lea edi, [rip + 0xabcd]; mov eax, 0x15; syscall; 
0x000000000001667b: lea edi, [rsi + rax + 0x480]; call rdx; 
0x0000000000007d0d: lea edi, [rsi + rax + 0xe08]; call rdx; 
0x000000000001673b: lea edi, [rsi + rax + 0xe08]; xor esi, esi; call rdx; 
0x0000000000011a20: lea edi, [rsp + 0x10]; cmove rcx, rsi; sub rsp, 8; mov esi, dword ptr [r13 + 0x10]; push qword ptr [rsp + 8]; call rax; 
0x000000000001168a: lea edi, [rsp + 0x40]; mov r8d, dword ptr [rsi]; mov esi, dword ptr [rbx + 0x10]; add r9, r8; lea r8, [rsp + 0x34]; call rax; 
0x000000000001747f: lea edi, [rsp + rax + 0x480]; call rcx; 
0x000000000001693d: lea edx, [rax - 1]; test eax, eax; je 0x1695e; lea rbx, [rbp + rdx*8]; nop dword ptr [rax]; call qword ptr [rbx]; 
0x0000000000005ee3: lea edx, [rbp + rsi + 8]; call rcx; 
0x000000000001cbdb: lea edx, [rip - 0x911]; call 0x1a5e0; mov rsi, r14; mov edi, 0x3001; mov eax, 0x9e; syscall; 
0x000000000001ee91: lea edx, [rsp - 0x50]; mov esi, 0x10; mov eax, 0x48; syscall; 
0x000000000001eef1: lea edx, [rsp - 8]; mov esi, 0x10; mov eax, 0x48; syscall; 
0x000000000001237c: lea esi, [rbp - 0x430]; mov eax, 0x14; syscall; 
0x0000000000011b86: lea esi, [rbx + rax*8 + 8]; nop word ptr [rax + rax]; mov rdx, r13; mov rsi, r12; mov edi, ebp; call qword ptr [rbx]; 
0x000000000001af9c: lea esi, [rip + 0x13fde]; mov edi, 0x3005; mov eax, 0x9e; syscall; 
0x0000000000007ae7: lea esi, [rsp + rax + 0x480]; mov rdx, r14; call rcx; 
0x0000000000007ae6: lea r14, [r12 + rax + 0x480]; mov rdx, r14; call rcx; 
0x0000000000011b85: lea r14, [rbx + rax*8 + 8]; nop word ptr [rax + rax]; mov rdx, r13; mov rsi, r12; mov edi, ebp; call qword ptr [rbx]; 
0x0000000000011697: lea r8, [rsp + 0x34]; call rax; 
0x0000000000014374: lea rax, [r8 + 1]; mov qword ptr [rip + 0x1ac21], rax; ret; 
0x0000000000022573: lea rax, [rax + rdi + 0x10]; ret; 
0x0000000000022583: lea rax, [rax + rdi + 0x20]; ret; 
0x0000000000022553: lea rax, [rax + rdi - 0x10]; ret; 
0x000000000000d132: lea rax, [rax + rdx*4]; mov dword ptr [rdi + 0x2f4], edx; mov qword ptr [rdi + 0x308], rax; ret; 
0x000000000000d100: lea rax, [rax + rdx*4]; mov dword ptr [rdi + 0x2fc], ecx; mov qword ptr [rdi + 0x310], rax; ret; 
0x000000000001d988: lea rax, [rcx + 1]; mov qword ptr [rdi], rax; mov rax, r8; ret; 
0x00000000000225a8: lea rax, [rdi + rax + 0x10]; ret; 
0x00000000000225b8: lea rax, [rdi + rax + 0x20]; ret; 
0x00000000000224b2: lea rax, [rdi + rax + 0x30]; ret; 
0x0000000000022c3f: lea rax, [rdi + rax]; cmp byte ptr [rax], sil; cmovne rax, rdx; ret; 
0x0000000000019f5b: lea rax, [rdi - 1]; cmp rax, -3; jbe 0x19f70; ret; 
0x000000000001ebd1: lea rax, [rdx + rcx]; cmp rax, qword ptr [rip + 0x1054c]; jae 0x1ebea; mov rdx, qword ptr [rip + 0x1054b]; add word ptr [rdx + rax*2], 1; ret; 
0x000000000001ae04: lea rax, [rip + 0x1287d]; ret; 
0x000000000001d720: lea rax, [rip + 0x8977]; ret; 
0x000000000001d6f0: lea rax, [rip + 0x89be]; ret; 
0x000000000001d730: lea rax, [rip + 0x89d5]; ret; 
0x000000000001d700: lea rax, [rip + 0x89e0]; ret; 
0x000000000001d710: lea rax, [rip + 0x89e3]; ret; 
0x000000000001d6e0: lea rax, [rip + 0x89e8]; ret; 
0x0000000000016944: lea rbx, [rbp + rdx*8]; nop dword ptr [rax]; call qword ptr [rbx]; 
0x0000000000017cbb: lea rcx, [rip + 0x1639e]; xor esi, esi; add r12d, 1; shl rax, 4; lea rdi, [rcx + rax + 0xe08]; call rdx; 
0x0000000000012104: lea rcx, [rip + 0x1bf55]; mov dword ptr [rbp - 0x38], edx; shl rax, 4; lea rdi, [rcx + rax + 0xe08]; call rsi; 
0x0000000000023674: lea rcx, [rip + 0xbac5]; neg eax; mov dword ptr [rcx], eax; or rax, 0xffffffffffffffff; ret; 
0x000000000001f274: lea rcx, [rip + 0xfec5]; neg eax; mov dword ptr [rcx], eax; or rax, 0xffffffffffffffff; ret; 
0x000000000001f244: lea rcx, [rip + 0xfef5]; neg eax; mov dword ptr [rcx], eax; or rax, 0xffffffffffffffff; ret; 
0x000000000001f214: lea rcx, [rip + 0xff25]; neg eax; mov dword ptr [rcx], eax; or rax, 0xffffffffffffffff; ret; 
0x0000000000012236: lea rcx, [rip - 0x5d]; mov qword ptr [rax + 0x10], rcx; mov qword ptr [rax + 8], rdx; ret; 
0x000000000001747e: lea rdi, [r12 + rax + 0x480]; call rcx; 
0x0000000000017ad7: lea rdi, [r13 + rax + 0x480]; call rcx; 
0x00000000000050fd: lea rdi, [r13 + rax + 0x480]; call rdx; 
0x00000000000051b6: lea rdi, [r13 + rax + 0xe08]; call rdx; 
0x000000000001667a: lea rdi, [r14 + rax + 0x480]; call rdx; 
0x0000000000007d0c: lea rdi, [r14 + rax + 0xe08]; call rdx; 
0x0000000000007cc7: lea rdi, [r15 + rax + 0x480]; call rdx; 
0x00000000000120af: lea rdi, [r15 + rax + 0x480]; call rsi; 
0x0000000000017ccc: lea rdi, [rcx + rax + 0xe08]; call rdx; 
0x0000000000012112: lea rdi, [rcx + rax + 0xe08]; call rsi; 
0x000000000001a630: lea rdi, [rcx + rsi + 0x20]; jmp rdx; 
0x0000000000017d52: lea rdi, [rdi + rax + 0xe08]; call rcx; 
0x000000000001768b: lea rdi, [rdi + rcx + 0xe08]; call rax; 
0x0000000000014f1f: lea rdi, [rip + 0x10a86]; mov eax, 0x59; mov rbp, rsp; mov rsi, rbp; syscall; 
0x00000000000121ca: lea rdi, [rip + 0x15b4f]; call 0x1d790; nop word ptr cs:[rax + rax]; endbr64; ret; 
0x0000000000017d3e: lea rdi, [rip + 0x1631b]; mov esi, 2; add r12d, 1; shl rax, 4; lea rdi, [rdi + rax + 0xe08]; call rcx; 
0x000000000001767c: lea rdi, [rip + 0x169dd]; add r12d, 1; shl rcx, 4; lea rdi, [rdi + rcx + 0xe08]; call rax; 
0x0000000000014322: lea rdi, [rip + 0x1a63f]; call rcx; 
0x00000000000142f4: lea rdi, [rip + 0x1a66d]; mov rbx, rax; call rcx; 
0x000000000000cf01: lea rdi, [rip + 0x21a60]; call rdx; 
0x000000000000cd12: lea rdi, [rip + 0x21c4f]; call rdx; 
0x00000000000016a6: lea rdi, [rip + 0x24c83]; call 0x12f0; add rsp, 0x40; pop rbx; ret; 
0x0000000000005ed0: lea rdi, [rip + 0x28b11]; add r14, 0xe0; shl r14, 4; lea rdx, [r13 + r14 + 8]; call rcx; 
0x000000000001a580: lea rdi, [rip + 0xabcd]; mov eax, 0x15; syscall; 
0x000000000001673a: lea rdi, [rsi + rax + 0xe08]; xor esi, esi; call rdx; 
0x0000000000011a1f: lea rdi, [rsp + 0x10]; cmove rcx, rsi; sub rsp, 8; mov esi, dword ptr [r13 + 0x10]; push qword ptr [rsp + 8]; call rax; 
0x0000000000011689: lea rdi, [rsp + 0x40]; mov r8d, dword ptr [rsi]; mov esi, dword ptr [rbx + 0x10]; add r9, r8; lea r8, [rsp + 0x34]; call rax; 
0x0000000000005ee2: lea rdx, [r13 + r14 + 8]; call rcx; 
0x000000000001cbda: lea rdx, [rip - 0x911]; call 0x1a5e0; mov rsi, r14; mov edi, 0x3001; mov eax, 0x9e; syscall; 
0x000000000001ee90: lea rdx, [rsp - 0x50]; mov esi, 0x10; mov eax, 0x48; syscall; 
0x000000000001eef0: lea rdx, [rsp - 8]; mov esi, 0x10; mov eax, 0x48; syscall; 
0x000000000001237b: lea rsi, [rbp - 0x430]; mov eax, 0x14; syscall; 
0x000000000001af9b: lea rsi, [rip + 0x13fde]; mov edi, 0x3005; mov eax, 0x9e; syscall; 
0x00000000000012e3: leave; call 0xa460; mov qword ptr [rbx + 0x18], rax; pop rbx; ret; 
0x0000000000012da8: leave; cmove r8, rax; mov rax, r8; ret; 
0x000000000000e0d2: leave; jne 0xe0d7; call rax; 
0x000000000000ead4: leave; jne 0xeae7; mov qword ptr [rbp - 0xd8], r11; call rax; 
0x00000000000068ff: leave; mov eax, 1; ret; 
0x00000000000068bf: leave; xor eax, eax; ret; 
0x00000000000012e1: leave; xor ecx, ecx; call 0xa460; mov qword ptr [rbx + 0x18], rax; pop rbx; ret; 
0x0000000000014e46: lock add eax, dword ptr [rax]; add al, ch; push rcx; ret 0xfffe; 
0x000000000001ed4c: lock add eax, dword ptr [rcx]; add byte ptr [rax - 1], bh; ret; 
0x000000000001401b: lock inc dword ptr [r8 + 0x10]; pop rbx; pop rbp; ret; 
0x000000000001ac4d: lock sub rax, qword ptr fs:[0]; mov rdi, qword ptr [rsp - 8]; ret; 
0x000000000001436f: lodsb al, byte ptr [rsi]; add dword ptr [rax], eax; jne 0x14380; lea rax, [r8 + 1]; mov qword ptr [rip + 0x1ac21], rax; ret; 
0x000000000001437c: lodsb al, byte ptr [rsi]; add dword ptr [rax], eax; ret; 
0x000000000001436e: lodsb al, byte ptr cs:[rsi]; add dword ptr [rax], eax; jne 0x14380; lea rax, [r8 + 1]; mov qword ptr [rip + 0x1ac21], rax; ret; 
0x000000000000124f: lodsd eax, dword ptr [rsi]; ret; 
0x0000000000014dc1: loope 0x14dc7; cmp r8, qword ptr [rcx + rsi + 0x10]; jae 0x14d75; xor eax, eax; ret; 
0x0000000000017689: loope 0x1768f; lea rdi, [rdi + rcx + 0xe08]; call rax; 
0x000000000001767b: loope 0x176c5; lea edi, [rip + 0x169dd]; add r12d, 1; shl rcx, 4; lea rdi, [rdi + rcx + 0xe08]; call rax; 
0x000000000001d357: loope 0x1d35c; pop r12; shl eax, cl; ret; 
0x0000000000022fac: loope 0x22fce; or rdx, rcx; bsf rdx, rdx; add rax, rdx; sub rax, rdi; ret; 
0x00000000000231c8: loope 0x231ea; or rdx, rcx; bsf rdx, rdx; add rax, rdx; sub rax, rdi; ret; 
0x0000000000007ae8: mov ah, 4; add byte ptr [rax + rax], 0; mov rdx, r14; call rcx; 
0x000000000001d32e: mov al, 0x48; add esp, 0x1d0; pop rbx; pop rbp; pop r12; ret; 
0x00000000000022ab: mov al, 0x48; mov dword ptr [rbp - 0x48], edi; call rax; 
0x000000000001ee94: mov al, 0xbe; adc byte ptr [rax], al; add byte ptr [rax], al; mov eax, 0x48; syscall; 
0x00000000000107d5: mov al, 0xf; xchg eax, ebp; ret 0x2148; 
0x000000000001716d: mov al, 0xff; inc edi; sbb byte ptr [rdx], al; add byte ptr [rax], al; add byte ptr [rax - 0x77], cl; ret; 
0x000000000001eec3: mov al, 2; mov eax, dword ptr [rsp - 0x4c]; jne 0x1ee89; neg eax; ret; 
0x00000000000233ef: mov bh, 0x36; mov word ptr [rdi + rdx - 2], cx; mov word ptr [rdi], si; ret; 
0x000000000001c971: mov bh, 0x42; or byte ptr [rax - 0x7d], cl; ret 0xc610; 
0x0000000000003112: mov bh, 0x70; cmp byte ptr [rax + 1], cl; ret 0x4166; 
0x0000000000004c08: mov bh, 0x90; add eax, dword ptr [rax]; add byte ptr [rax - 0x77], cl; ret; 
0x0000000000013919: mov bh, 1; add byte ptr [rdi], cl; test dword ptr [rsi], edi; add al, byte ptr [rax]; add byte ptr [rbx - 0x28f7b], cl; jmp qword ptr [rsi + 0xf]; 
0x000000000001e965: mov bh, 4; add byte ptr [rax], al; mov dword ptr [rip + 0x107cd], 0x16; mov eax, 0xffffffff; ret; 
0x000000000000e46b: mov byte ptr [r9 - 0x77], r9b; ret 0x8949; 
0x000000000000df26: mov byte ptr [r9 - 0x77], r9b; xchg dword ptr [rax], ebx; add al, 0; add byte ptr [rcx - 0x77], cl; ret; 
0x000000000001a01e: mov byte ptr [rax + 0x28], 1; ret; 
0x000000000001c527: mov byte ptr [rax], al; add byte ptr [rax], al; pop rbx; ret; 
0x000000000001672e: mov byte ptr [rcx + rcx*4 - 0x18], al; add r13d, 1; shl rax, 4; lea rdi, [rsi + rax + 0xe08]; xor esi, esi; call rdx; 
0x00000000000116f2: mov byte ptr [rcx - 0x73], 0x46; dec dword ptr [rax - 0x77]; ret 0xc148; 
0x000000000000e46c: mov byte ptr [rcx - 0x77], cl; ret 0x8949; 
0x000000000000df27: mov byte ptr [rcx - 0x77], cl; xchg dword ptr [rax], ebx; add al, 0; add byte ptr [rcx - 0x77], cl; ret; 
0x000000000001d985: mov byte ptr [rcx], 0; lea rax, [rcx + 1]; mov qword ptr [rdi], rax; mov rax, r8; ret; 
0x0000000000019fb2: mov byte ptr [rdi + 0x28], 1; ret; 
0x00000000000233c8: mov byte ptr [rdi], cl; ret; 
0x00000000000045cd: mov byte ptr [rdx], al; add byte ptr [rax], al; add byte ptr [rcx + rcx*2 + 0xf], dh; xor dword ptr [rax - 0x77], ecx; ret; 
0x0000000000001cf5: mov byte ptr [rip + 0x2d31c], 1; pop rbx; ret; 
0x00000000000121d3: mov ch, 0; add byte ptr [rsi + 0x2e], ah; nop dword ptr [rax + rax]; endbr64; ret; 
0x000000000001e01c: mov ch, 0x48; add esp, 8; mov rax, r12; pop rbx; pop r12; ret; 
0x000000000000452d: mov ch, 0x90; add eax, dword ptr [rax]; add byte ptr [rdi], cl; xchg eax, ebp; ret 0xb6e8; 
0x000000000001df56: mov dh, 0x11; add dword ptr [rax], eax; cmp rdi, rax; ja 0x1df80; xor eax, eax; ret; 
0x000000000001df82: mov dh, 0x11; add dword ptr [rax], eax; or al, 0; add byte ptr [rax], al; mov eax, 0xffffffff; ret; 
0x00000000000228c5: mov dh, 0x16; sub eax, edx; ret; 
0x000000000000a366: mov dh, 0x42; add dword ptr [rax - 0x7d], ecx; ret 0x8401; 
0x000000000001d08c: mov dh, 0x44; ret; 
0x0000000000009246: mov dh, 0x56; jo 0xffffffff950f9648; rol byte ptr [rdx + rdx*8 - 0x72b7f08c], 0x1d; sti; ret 1; 
0x0000000000007afb: mov dh, 0x84; and al, 0x1d; add eax, dword ptr [rax]; add byte ptr [rdi], cl; xchg eax, ebp; ret 0x8341; 
0x000000000000a4cb: mov dh, 0x87; sbb eax, 0x89000003; ret 0xe8c0; 
0x0000000000015186: mov dh, 0x9f; add dword ptr [rax], eax; pop rbx; ret; 
0x00000000000228e5: mov dh, 0xc0; sar rdx, cl; movzx edx, dl; sub eax, edx; ret; 
0x00000000000228eb: mov dh, 0xd2; sub eax, edx; ret; 
0x00000000000233c6: mov dh, 0xe; mov byte ptr [rdi], cl; ret; 
0x0000000000020a41: mov dh, 0xe; movzx eax, byte ptr [rdi]; sub eax, ecx; ret; 
0x00000000000228c2: mov dh, 7; movzx edx, byte ptr [rsi]; sub eax, edx; ret; 
0x0000000000020a44: mov dh, 7; sub eax, ecx; ret; 
0x000000000000a3a5: mov dl, 1; add al, ch; ret; 
0x000000000001223e: mov dword ptr [rax + 0x10], ecx; mov qword ptr [rax + 8], rdx; ret; 
0x000000000001a01b: mov dword ptr [rax + 0x20], ecx; mov byte ptr [rax + 0x28], 1; ret; 
0x000000000001a029: mov dword ptr [rax + 0x20], esi; ret; 
0x000000000001d6d2: mov dword ptr [rax + 4], edx; ret; 
0x0000000000012242: mov dword ptr [rax + 8], edx; ret; 
0x00000000000120a8: mov dword ptr [rbp - 0x38], edx; shl rax, 4; lea rdi, [r15 + rax + 0x480]; call rsi; 
0x000000000001210b: mov dword ptr [rbp - 0x38], edx; shl rax, 4; lea rdi, [rcx + rax + 0xe08]; call rsi; 
0x0000000000017ac7: mov dword ptr [rbp - 0x48], ebx; mov esi, 2; add r12d, 1; shl rax, 4; lea rdi, [r13 + rax + 0x480]; call rcx; 
0x00000000000022ad: mov dword ptr [rbp - 0x48], edi; call rax; 
0x00000000000022a9: mov dword ptr [rbp - 0x50], ecx; mov qword ptr [rbp - 0x48], rdi; call rax; 
0x00000000000022a5: mov dword ptr [rbp - 0x58], edx; mov qword ptr [rbp - 0x50], rcx; mov qword ptr [rbp - 0x48], rdi; call rax; 
0x00000000000022a1: mov dword ptr [rbp - 0x60], esi; mov qword ptr [rbp - 0x58], rdx; mov qword ptr [rbp - 0x50], rcx; mov qword ptr [rbp - 0x48], rdi; call rax; 
0x000000000000ead8: mov dword ptr [rbp - 0xd8], ebx; call rax; 
0x0000000000019276: mov dword ptr [rbx + 0x10], 0; movups xmmword ptr [rbx], xmm0; pop rbx; ret; 
0x000000000000121f: mov dword ptr [rbx + 0x10], eax; add rsp, 0x10; pop rbx; ret; 
0x00000000000046cc: mov dword ptr [rbx + 0x10], ebx; syscall; 
0x00000000000012ea: mov dword ptr [rbx + 0x18], eax; pop rbx; ret; 
0x000000000000f516: mov dword ptr [rbx + 0x20], eax; pop rbx; ret; 
0x000000000001e99f: mov dword ptr [rbx + 0x50], 0; movups xmmword ptr [rbx + 0x38], xmm0; pop rbx; ret; 
0x000000000001c2ee: mov dword ptr [rbx + 0x58908c8], 0x12c84; ret; 
0x000000000001c31e: mov dword ptr [rbx + 0x58910c8], 0x12c54; ret; 
0x000000000001c346: mov dword ptr [rbx + 0x58918c8], 0x12c2c; ret; 
0x00000000000011af: mov dword ptr [rbx + 8], eax; pop rax; pop rdx; pop rbx; ret; 
0x0000000000015168: mov dword ptr [rbx], 0; pop rbx; or dword ptr [rip + 0x19e22], 1; ret; 
0x00000000000111de: mov dword ptr [rbx], eax; add rsp, 0x10; pop rbx; ret; 
0x000000000001f101: mov dword ptr [rbx], eax; mov eax, 1; pop rbx; pop rbp; pop r12; ret; 
0x00000000000046bc: mov dword ptr [rbx], ebx; mov rsi, rbx; mov eax, 0x9e; mov edi, 0x1002; mov qword ptr [rbx + 0x10], rbx; syscall; 
0x00000000000195d6: mov dword ptr [rcx], 0x1c68348; test al, al; jne 0x195ae; movsx eax, dl; neg eax; ret; 
0x000000000001f21d: mov dword ptr [rcx], eax; or rax, 0xffffffffffffffff; ret; 
0x0000000000019faf: mov dword ptr [rdi + 0x20], edx; mov byte ptr [rdi + 0x28], 1; ret; 
0x0000000000019fc1: mov dword ptr [rdi + 0x20], esi; ret; 
0x000000000000d136: mov dword ptr [rdi + 0x2f4], edx; mov qword ptr [rdi + 0x308], rax; ret; 
0x000000000000d104: mov dword ptr [rdi + 0x2fc], ecx; mov qword ptr [rdi + 0x310], rax; ret; 
0x000000000000d13d: mov dword ptr [rdi + 0x308], eax; ret; 
0x000000000000d10b: mov dword ptr [rdi + 0x310], eax; ret; 
0x000000000001d644: mov dword ptr [rdi + 0x40], 0; xor eax, eax; ret; 
0x000000000001f349: mov dword ptr [rdi + 0x58], eax; xor eax, eax; ret; 
0x0000000000023656: mov dword ptr [rdi + rdx - 2], ecx; mov word ptr [rdi], cx; ret; 
0x00000000000233f2: mov dword ptr [rdi + rdx - 2], ecx; mov word ptr [rdi], si; ret; 
0x000000000002364e: mov dword ptr [rdi + rdx - 4], ecx; mov dword ptr [rdi], ecx; ret; 
0x00000000000233e2: mov dword ptr [rdi + rdx - 4], ecx; mov dword ptr [rdi], esi; ret; 
0x0000000000023646: mov dword ptr [rdi + rdx - 8], ecx; mov qword ptr [rdi], rcx; ret; 
0x00000000000233d4: mov dword ptr [rdi + rdx - 8], ecx; mov qword ptr [rdi], rsi; ret; 
0x000000000001469c: mov dword ptr [rdi], eax; mov rax, qword ptr [rip + 0x1a923]; mov qword ptr [rsi], rax; ret; 
0x000000000001d98d: mov dword ptr [rdi], eax; mov rax, r8; ret; 
0x000000000002364b: mov dword ptr [rdi], ecx; ret; 
0x000000000001d3ff: mov dword ptr [rdi], edx; ret; 
0x00000000000233d9: mov dword ptr [rdi], esi; ret; 
0x000000000001f09a: mov dword ptr [rip + 0x100a0], eax; mov rax, -1; ret; 
0x000000000001f072: mov dword ptr [rip + 0x100c8], eax; mov rax, -1; ret; 
0x000000000001f03a: mov dword ptr [rip + 0x10100], eax; mov rax, -1; ret; 
0x000000000001f00a: mov dword ptr [rip + 0x10130], eax; mov eax, 0xffffffff; ret; 
0x000000000001efa2: mov dword ptr [rip + 0x10198], eax; mov eax, 0xffffffff; ret; 
0x000000000001ef0a: mov dword ptr [rip + 0x10230], eax; mov eax, 0xffffffff; ret; 
0x000000000001eeaa: mov dword ptr [rip + 0x10290], eax; mov eax, 0xffffffff; ret; 
0x000000000001ee3a: mov dword ptr [rip + 0x10300], eax; mov eax, 0xffffffff; ret; 
0x000000000001ee0a: mov dword ptr [rip + 0x10330], eax; mov eax, 0xffffffff; ret; 
0x000000000001edda: mov dword ptr [rip + 0x10360], eax; mov rax, -1; ret; 
0x000000000001edb0: mov dword ptr [rip + 0x10386], 0x16; mov eax, 0xffffffff; ret; 
0x000000000001ed9a: mov dword ptr [rip + 0x103a0], eax; mov eax, 0xffffffff; ret; 
0x000000000001ed60: mov dword ptr [rip + 0x103d6], 0x16; mov eax, 0xffffffff; ret; 
0x000000000001ed4a: mov dword ptr [rip + 0x103f0], eax; mov eax, 0xffffffff; ret; 
0x000000000001ed10: mov dword ptr [rip + 0x10426], 0x16; mov eax, 0xffffffff; ret; 
0x000000000001ecfa: mov dword ptr [rip + 0x10440], eax; mov eax, 0xffffffff; ret; 
0x000000000001eb0a: mov dword ptr [rip + 0x10630], eax; mov rax, -1; ret; 
0x000000000001ea23: mov dword ptr [rip + 0x10717], esp; xor eax, eax; pop rbx; pop rbp; pop r12; ret; 
0x000000000001ea22: mov dword ptr [rip + 0x10717], r12d; xor eax, eax; pop rbx; pop rbp; pop r12; ret; 
0x000000000001e969: mov dword ptr [rip + 0x107cd], 0x16; mov eax, 0xffffffff; ret; 
0x000000000001e7b0: mov dword ptr [rip + 0x10986], 0x16; mov eax, 0xffffffff; ret; 
0x000000000001e7a2: mov dword ptr [rip + 0x10998], eax; mov eax, 0xffffffff; ret; 
0x000000000001e4e2: mov dword ptr [rip + 0x10c58], eax; mov eax, 0xffffffff; ret; 
0x000000000001df80: mov dword ptr [rip + 0x111b6], 0xc; mov eax, 0xffffffff; ret; 
0x000000000001df54: mov dword ptr [rip + 0x111b6], eax; cmp rdi, rax; ja 0x1df80; xor eax, eax; ret; 
0x000000000001df75: mov dword ptr [rip + 0x111c5], eax; xor eax, eax; ret; 
0x000000000001c51e: mov dword ptr [rip + 0x111e4], eax; add rsp, 0x88; pop rbx; ret; 
0x000000000001ddca: mov dword ptr [rip + 0x11330], ebx; add rsp, 8; pop rbx; pop rbp; ret; 
0x000000000001ddba: mov dword ptr [rip + 0x11340], eax; call rsi; 
0x000000000001ddaf: mov dword ptr [rip + 0x1134f], 0; mov qword ptr [rip + 0x11340], r8; call rsi; 
0x000000000001dd09: mov dword ptr [rip + 0x113f9], eax; add rsp, 0x110; mov eax, r12d; pop r12; ret; 
0x000000000001d631: mov dword ptr [rip + 0x11ac1], eax; add rsp, 8; ret; 
0x000000000001d4ef: mov dword ptr [rip + 0x11c03], ecx; add rsp, 8; pop rbx; pop rbp; ret; 
0x000000000001c34a: mov dword ptr [rip + 0x12c2c], eax; ret; 
0x000000000001c322: mov dword ptr [rip + 0x12c54], eax; ret; 
0x000000000001c2f2: mov dword ptr [rip + 0x12c84], eax; ret; 
0x000000000001c2ba: mov dword ptr [rip + 0x12cbc], eax; ret; 
0x000000000001c292: mov dword ptr [rip + 0x12ce4], eax; ret; 
0x000000000001c262: mov dword ptr [rip + 0x12d14], eax; ret; 
0x0000000000019f81: mov dword ptr [rip + 0x1514d], 0; add rsp, 8; ret; 
0x0000000000014379: mov dword ptr [rip + 0x1ac21], eax; ret; 
0x0000000000001cac: mov dword ptr [rip + 0x2d31e], eax; mov eax, 0x9e; mov qword ptr [rsi], rsi; mov qword ptr [rsi + 0x10], rsi; syscall; 
0x000000000001f5b0: mov dword ptr [rip + 0xfb86], 0x16; mov eax, 0xffffffff; ret; 
0x000000000001f570: mov dword ptr [rip + 0xfbca], eax; mov eax, r9d; add rsp, 0xd0; ret; 
0x000000000001f198: mov dword ptr [rip + 0xff9e], 0x16; mov rax, -1; ret; 
0x0000000000001cbb: mov dword ptr [rsi + 0x10], esi; syscall; 
0x000000000001d6ca: mov dword ptr [rsi - 7], 0x6f727245; mov word ptr [rax + 4], dx; ret; 
0x00000000000146a6: mov dword ptr [rsi], eax; ret; 
0x0000000000012d35: mov dword ptr [rsi], edi; mov rax, r8; ret; 
0x0000000000001cb8: mov dword ptr [rsi], esi; mov qword ptr [rsi + 0x10], rsi; syscall; 
0x0000000000011ace: mov dword ptr [rsp + 0x10], ecx; call rax; 
0x0000000000012a28: mov dword ptr [rsp + 0x18], eax; call 0x12290; add rsp, 0xd8; ret; 
0x0000000000014751: mov dword ptr [rsp + 8], eax; mov rax, r12; pop rbx; pop rbp; pop r12; ret; 
0x000000000001ee71: mov dword ptr [rsp - 0x38], eax; cmp esi, 9; je 0x1ee90; mov eax, 0x48; syscall; 
0x00000000000233e1: mov dword ptr ss:[rdi + rdx - 4], ecx; mov dword ptr [rdi], esi; ret; 
0x000000000001e4c7: mov eax, 0x101; syscall; 
0x000000000001e4c7: mov eax, 0x101; syscall; cmp rax, -0x1000; ja 0x1e4e0; ret; 
0x000000000001ef61: mov eax, 0x101; syscall; cmp rax, -0x1000; ja 0x1efa0; ret; 
0x000000000001efcf: mov eax, 0x101; syscall; cmp rax, -0x1000; ja 0x1f008; ret; 
0x000000000001e788: mov eax, 0x106; syscall; 
0x000000000001e788: mov eax, 0x106; syscall; cmp rax, -0x1000; ja 0x1e7a0; ret; 
0x000000000001f057: mov eax, 0x11; syscall; 
0x000000000001f057: mov eax, 0x11; syscall; cmp rax, -0x1000; ja 0x1f070; ret; 
0x0000000000012382: mov eax, 0x14; syscall; 
0x000000000001a587: mov eax, 0x15; syscall; 
0x000000000001edf4: mov eax, 0x15; syscall; cmp rax, -0x1000; ja 0x1ee08; ret; 
0x0000000000023664: mov eax, 0x26; syscall; 
0x0000000000023664: mov eax, 0x26; syscall; cmp rax, -0xfff; jae 0x23674; ret; 
0x000000000001f2e4: mov eax, 0x27; syscall; 
0x000000000001f2e4: mov eax, 0x27; syscall; ret; 
0x000000000001f264: mov eax, 0x3f; syscall; 
0x000000000001f264: mov eax, 0x3f; syscall; cmp rax, -0xfff; jae 0x1f274; ret; 
0x000000000001ee7a: mov eax, 0x48; syscall; 
0x000000000001ee7a: mov eax, 0x48; syscall; cmp rax, -0x1000; ja 0x1eea8; ret; 
0x000000000001eed9: mov eax, 0x48; syscall; cmp rax, -0x1000; ja 0x1ef08; ret; 
0x0000000000014f26: mov eax, 0x59; mov rbp, rsp; mov rsi, rbp; syscall; 
0x0000000000019b91: mov eax, 0x62696c67; movsxd rbp, dword ptr [rip + 0x3349646c]; add byte ptr [rax + 9], cl; ret 0x4475; 
0x0000000000017aee: mov eax, 0x72d43941; ret; 
0x000000000001eaeb: mov eax, 0x7fffffff; cmova rdx, rax; mov eax, 0xd9; syscall; 
0x00000000000123dd: mov eax, 0x83fffffb; ret; 
0x00000000000120e6: mov eax, 0x83fffffe; ret 0x4d01; 
0x00000000000046c1: mov eax, 0x9e; mov edi, 0x1002; mov qword ptr [rbx + 0x10], rbx; syscall; 
0x0000000000001cb2: mov eax, 0x9e; mov qword ptr [rsi], rsi; mov qword ptr [rsi + 0x10], rsi; syscall; 
0x000000000001afa7: mov eax, 0x9e; syscall; 
0x000000000001f234: mov eax, 0xa; syscall; 
0x000000000001f234: mov eax, 0xa; syscall; cmp rax, -0xfff; jae 0x1f244; ret; 
0x000000000001f204: mov eax, 0xb; syscall; 
0x000000000001f204: mov eax, 0xb; syscall; cmp rax, -0xfff; jae 0x1f214; ret; 
0x000000000001df44: mov eax, 0xc; syscall; 
0x000000000000cc93: mov eax, 0xca; syscall; 
0x000000000001eaf4: mov eax, 0xd9; syscall; 
0x000000000001eaf4: mov eax, 0xd9; syscall; cmp rax, -0x1000; ja 0x1eb08; ret; 
0x000000000001f498: mov eax, 0xd; syscall; 
0x0000000000002650: mov eax, 0xf660002; insb byte ptr [rdi], dx; ret 0x85c7; 
0x000000000001f3e1: mov eax, 0xf; syscall; 
0x000000000001716a: mov eax, 0xffb080e8; inc edi; sbb byte ptr [rdx], al; add byte ptr [rax], al; add byte ptr [rax - 0x77], cl; ret; 
0x00000000000022c8: mov eax, 0xffff10e9; jmp qword ptr [rsi - 0x70]; 
0x000000000000d754: mov eax, 0xffffffff; pop rbp; ret; 
0x000000000000d75b: mov eax, 0xffffffff; ret; 
0x0000000000012be0: mov eax, 1; add rsp, 8; pop rbx; pop rbp; ret; 
0x000000000001f103: mov eax, 1; pop rbx; pop rbp; pop r12; ret; 
0x0000000000016a11: mov eax, 1; pop rbx; pop rbp; ret; 
0x0000000000006900: mov eax, 1; ret; 
0x000000000001f084: mov eax, 1; syscall; 
0x000000000001f084: mov eax, 1; syscall; cmp rax, -0x1000; ja 0x1f098; ret; 
0x000000000001ee24: mov eax, 3; syscall; 
0x000000000001ee24: mov eax, 3; syscall; cmp rax, -0x1000; ja 0x1ee38; ret; 
0x000000000001ece3: mov eax, 4; syscall; 
0x000000000001ece3: mov eax, 4; syscall; cmp rax, -0x1000; ja 0x1ecf8; ret; 
0x000000000001ed32: mov eax, 5; syscall; 
0x000000000001ed32: mov eax, 5; syscall; cmp rax, -0x1000; ja 0x1ed48; ret; 
0x000000000001ed83: mov eax, 6; syscall; 
0x000000000001ed83: mov eax, 6; syscall; cmp rax, -0x1000; ja 0x1ed98; ret; 
0x000000000001edc4: mov eax, 8; syscall; 
0x000000000001edc4: mov eax, 8; syscall; cmp rax, -0x1000; ja 0x1edd8; ret; 
0x000000000001f17f: mov eax, 9; syscall; 
0x000000000001d2a7: mov eax, dword ptr [rax + 0x14]; add rsp, 0x1d0; pop rbx; pop rbp; pop r12; ret; 
0x0000000000011f85: mov eax, dword ptr [rax + 8]; add rax, qword ptr [r15]; call rax; 
0x0000000000011b4c: mov eax, dword ptr [rax + 8]; mov rdx, r13; add rax, qword ptr [rbx]; mov rsi, r12; mov edi, ebp; call rax; 
0x000000000001abe5: mov eax, dword ptr [rax + 8]; ret; 
0x000000000001abf5: mov eax, dword ptr [rax + 8]; sub rax, qword ptr fs:[0]; ret; 
0x0000000000001218: mov eax, dword ptr [rax]; add rax, qword ptr [rdx + 8]; mov qword ptr [rbx + 0x10], rax; add rsp, 0x10; pop rbx; ret; 
0x000000000001abba: mov eax, dword ptr [rbp + 0x18]; test rax, rax; je 0x1abc8; mov rdi, qword ptr [rbp]; call rax; 
0x0000000000014cd8: mov eax, dword ptr [rbp + 8]; pop rbp; add rax, rdx; ret; 
0x0000000000005b71: mov eax, dword ptr [rbp - 0x150]; test rax, rax; je 0x5dca; mov edi, 1; call rax; 
0x000000000000eacc: mov eax, dword ptr [rbx + 0x10]; add rax, qword ptr [r11]; test r9d, r9d; jne 0xeae7; mov qword ptr [rbp - 0xd8], r11; call rax; 
0x000000000000dc8a: mov eax, dword ptr [rbx + 0x10]; add rax, qword ptr [r13]; call rax; 
0x000000000001deb7: mov eax, dword ptr [rbx + 0x10]; add rax, qword ptr [r14]; call rax; 
0x000000000000e0cb: mov eax, dword ptr [rbx + 0x10]; add rax, qword ptr [r15]; test ecx, ecx; jne 0xe0d7; call rax; 
0x000000000000e998: mov eax, dword ptr [rbx + 0x10]; add rax, qword ptr [r15]; test edx, edx; jne 0xe9a4; call rax; 
0x000000000000e1e0: mov eax, dword ptr [rbx + 0x10]; add rax, qword ptr [r15]; test r11d, r11d; jne 0xe1ed; call rax; 
0x0000000000001dd0: mov eax, dword ptr [rbx]; test eax, eax; jne 0x1de0; pop rbx; ret; 
0x0000000000012c42: mov eax, dword ptr [rcx]; ret; 
0x000000000001ab25: mov eax, dword ptr [rdi]; cmp rax, rsi; je 0x1ab30; ret; 
0x0000000000014d21: mov eax, dword ptr [rdx + rax]; cmp rax, -1; je 0x14d38; add rax, qword ptr [rdi + 8]; ret; 
0x000000000001add1: mov eax, dword ptr [rdx + rax]; cmp rax, -1; je 0x1addf; add rax, qword ptr [rdi + 8]; ret; 
0x0000000000014d7a: mov eax, dword ptr [rdx + rax]; mov edx, 0; cmp rax, -1; cmove rax, rdx; ret; 
0x000000000001c33e: mov eax, dword ptr [rip + 0x12c38]; and eax, 0xffffffc7; or eax, 0x18; mov dword ptr [rip + 0x12c2c], eax; ret; 
0x000000000001c316: mov eax, dword ptr [rip + 0x12c60]; and eax, 0xffffffc7; or eax, 0x10; mov dword ptr [rip + 0x12c54], eax; ret; 
0x000000000001c2e6: mov eax, dword ptr [rip + 0x12c90]; and eax, 0xffffffc7; or eax, 8; mov dword ptr [rip + 0x12c84], eax; ret; 
0x000000000001c2ae: mov eax, dword ptr [rip + 0x12cc8]; and eax, 0xfffffff8; or eax, 3; mov dword ptr [rip + 0x12cbc], eax; ret; 
0x000000000001c286: mov eax, dword ptr [rip + 0x12cf0]; and eax, 0xfffffff8; or eax, 2; mov dword ptr [rip + 0x12ce4], eax; ret; 
0x000000000001c256: mov eax, dword ptr [rip + 0x12d20]; and eax, 0xfffffff8; or eax, 1; mov dword ptr [rip + 0x12d14], eax; ret; 
0x0000000000015184: mov eax, dword ptr [rip + 0x19fb6]; pop rbx; ret; 
0x0000000000014695: mov eax, dword ptr [rip + 0x1a91d]; mov qword ptr [rdi], rax; mov rax, qword ptr [rip + 0x1a923]; mov qword ptr [rsi], rax; ret; 
0x000000000001469f: mov eax, dword ptr [rip + 0x1a923]; mov qword ptr [rsi], rax; ret; 
0x000000000001446e: mov eax, dword ptr [rip + 0x1ab2c]; mov rax, r8; ret; 
0x000000000001436c: mov eax, dword ptr [rip + 0x1ac2e]; jne 0x14380; lea rax, [r8 + 1]; mov qword ptr [rip + 0x1ac21], rax; ret; 
0x000000000001ecc4: mov eax, dword ptr [rip + 0xe98e]; ret; 
0x000000000001a856: mov eax, dword ptr [rsi + 0x18]; test rax, rax; je 0x1a867; mov rdi, r15; call rax; 
0x000000000001168f: mov eax, dword ptr [rsi]; mov esi, dword ptr [rbx + 0x10]; add r9, r8; lea r8, [rsp + 0x34]; call rax; 
0x00000000000113ec: mov eax, dword ptr [rsp + 0x20]; call rax; 
0x000000000001dd04: mov eax, dword ptr [rsp + 8]; mov qword ptr [rip + 0x113f9], rax; add rsp, 0x110; mov eax, r12d; pop r12; ret; 
0x000000000001eec5: mov eax, dword ptr [rsp - 0x4c]; jne 0x1ee89; neg eax; ret; 
0x000000000001ef25: mov eax, dword ptr [rsp - 4]; jne 0x1eee8; neg eax; ret; 
0x000000000001696c: mov eax, dword ptr [rsp]; pop rbx; add rax, qword ptr [rdx + 8]; pop rbp; pop r12; jmp rax; 
0x0000000000012da2: mov eax, eax; neg rax; test cl, cl; cmove r8, rax; mov rax, r8; ret; 
0x0000000000012d38: mov eax, eax; ret; 
0x000000000001f2ba: mov eax, eax; syscall; 
0x0000000000016730: mov eax, ebp; add r13d, 1; shl rax, 4; lea rdi, [rsi + rax + 0xe08]; xor esi, esi; call rdx; 
0x000000000001d845: mov eax, ebp; pop rbx; pop rbp; ret; 
0x000000000001666e: mov eax, ebp; xor esi, esi; add r13d, 1; shl rax, 4; lea rdi, [r14 + rax + 0x480]; call rdx; 
0x0000000000017475: mov eax, ebx; add ebx, 1; shl rax, 4; lea rdi, [r12 + rax + 0x480]; call rcx; 
0x0000000000007cfe: mov eax, ebx; mov esi, 1; add ebx, 1; shl rax, 4; lea rdi, [r14 + rax + 0xe08]; call rdx; 
0x0000000000007cb9: mov eax, ebx; mov esi, 1; add ebx, 1; shl rax, 4; lea rdi, [r15 + rax + 0x480]; call rdx; 
0x000000000001f544: mov eax, ecx; add rsp, 0xd0; ret; 
0x0000000000019663: mov eax, ecx; sub eax, r8d; ret; 
0x000000000001f1cc: mov eax, ecx; syscall; 
0x000000000001e4b9: mov eax, edx; and eax, 0x410000; cmp eax, 0x410000; je 0x1e4ee; mov eax, 0x101; syscall; 
0x0000000000012102: mov eax, edx; lea rcx, [rip + 0x1bf55]; mov dword ptr [rbp - 0x38], edx; shl rax, 4; lea rdi, [rcx + rax + 0xe08]; call rsi; 
0x00000000000120a6: mov eax, edx; mov dword ptr [rbp - 0x38], edx; shl rax, 4; lea rdi, [r15 + rax + 0x480]; call rsi; 
0x00000000000232c9: mov eax, edx; ret; 
0x0000000000001cf3: mov eax, esi; mov byte ptr [rip + 0x2d31c], 1; pop rbx; ret; 
0x000000000001f3c3: mov eax, esi; mov rsp, r8; mov rbp, r9; nop; jmp rdx; 
0x000000000001b0d0: mov eax, esi; or eax, 2; test dl, dl; cmove esi, eax; mov eax, 0x9e; syscall; 
0x0000000000001d14: mov eax, esi; ret; 
0x000000000001f2aa: mov eax, esi; syscall; 
0x0000000000014776: mov eax, esp; pop r12; ret; 
0x00000000000097c0: mov eax, esp; pop rbp; pop r12; pop r13; pop r14; ret; 
0x0000000000006743: mov eax, esp; pop rbp; pop r12; pop r13; ret; 
0x0000000000015086: mov eax, esp; pop rbp; pop r12; ret; 
0x000000000001dfde: mov eax, esp; pop rbx; pop r12; ret; 
0x000000000000670b: mov eax, esp; pop rbx; pop rbp; pop r12; pop r13; ret; 
0x0000000000014756: mov eax, esp; pop rbx; pop rbp; pop r12; ret; 
0x000000000000f4a9: mov eax, esp; sar rax, 3; pop rbx; pop rbp; pop r12; ret; 
0x00000000000050f1: mov eax, esp; xor esi, esi; add r12d, 1; shl rax, 4; lea rdi, [r13 + rax + 0x480]; call rdx; 
0x00000000000051aa: mov eax, esp; xor esi, esi; add r12d, 1; shl rax, 4; lea rdi, [r13 + rax + 0xe08]; call rdx; 
0x000000000001dce0: mov eax, r12d; pop r12; ret; 
0x00000000000135c8: mov eax, r12d; pop rbp; pop r12; pop r13; ret; 
0x0000000000015085: mov eax, r12d; pop rbp; pop r12; ret; 
0x0000000000013586: mov eax, r12d; pop rbx; pop rbp; pop r12; pop r13; ret; 
0x00000000000050f0: mov eax, r12d; xor esi, esi; add r12d, 1; shl rax, 4; lea rdi, [r13 + rax + 0x480]; call rdx; 
0x00000000000051a9: mov eax, r12d; xor esi, esi; add r12d, 1; shl rax, 4; lea rdi, [r13 + rax + 0xe08]; call rdx; 
0x000000000001672f: mov eax, r13d; add r13d, 1; shl rax, 4; lea rdi, [rsi + rax + 0xe08]; xor esi, esi; call rdx; 
0x000000000001666d: mov eax, r13d; xor esi, esi; add r13d, 1; shl rax, 4; lea rdi, [r14 + rax + 0x480]; call rdx; 
0x000000000001f2b9: mov eax, r8d; syscall; 
0x000000000001f543: mov eax, r9d; add rsp, 0xd0; ret; 
0x0000000000012376: mov ebp, 0xfffffba0; lea rsi, [rbp - 0x430]; mov eax, 0x14; syscall; 
0x000000000001f3c9: mov ebp, ecx; nop; jmp rdx; 
0x000000000001e043: mov ebp, esi; push rbx; mov rbx, rdi; sub rsp, 0xe8; syscall; 
0x000000000001ade1: mov ebp, esp; and rsp, 0xfffffffffffffff0; call 0x14ed0; mov rsp, rbp; pop rbp; ret; 
0x0000000000014f2c: mov ebp, esp; mov rsi, rbp; syscall; 
0x000000000001ef9a: mov ebx, 0x441f0f; add bh, dh; fmul dword ptr [rcx + 0x1019805]; add byte ptr [rax - 1], bh; ret; 
0x0000000000004561: mov ebx, 0xf000290; xchg eax, esp; ret; 
0x000000000000e1d9: mov ebx, dword ptr [rbp - 0xc8]; mov rax, qword ptr [rbx + 0x10]; add rax, qword ptr [r15]; test r11d, r11d; jne 0xe1ed; call rax; 
0x000000000001ad91: mov ebx, dword ptr [rsp + 0x30]; mov rdx, qword ptr [rsp + 0x38]; mov rcx, qword ptr [rsp + 0x40]; add rsp, 0x48; jmp qword ptr [rax]; 
0x000000000001ad0f: mov ebx, dword ptr [rsp + 0x30]; mov rdx, qword ptr [rsp + 0x38]; mov rcx, qword ptr [rsp + 0x40]; add rsp, 0x58; jmp qword ptr [rax]; 
0x00000000000142fc: mov ebx, eax; call rcx; 
0x000000000001e047: mov ebx, edi; sub rsp, 0xe8; syscall; 
0x000000000001d2a6: mov ecx, 0x4814408b; add esp, 0x1d0; pop rbx; pop rbp; pop r12; ret; 
0x000000000001f56b: mov ecx, 0xffffffff; mov dword ptr [rip + 0xfbca], eax; mov eax, r9d; add rsp, 0xd0; ret; 
0x000000000001f1c1: mov ecx, 9; xor edi, edi; or r10d, 0x40; mov eax, ecx; syscall; 
0x000000000000e0c4: mov ecx, dword ptr [rbp - 0xc8]; mov rax, qword ptr [rbx + 0x10]; add rax, qword ptr [r15]; test ecx, ecx; jne 0xe0d7; call rax; 
0x000000000001d605: mov ecx, dword ptr [rip + 0x11add]; cmp rcx, rdi; je 0x1d618; ret; 
0x00000000000233dc: mov ecx, dword ptr [rsi + rdx - 4]; mov esi, dword ptr [rsi]; mov dword ptr [rdi + rdx - 4], ecx; mov dword ptr [rdi], esi; ret; 
0x00000000000233cc: mov ecx, dword ptr [rsi + rdx - 8]; mov rsi, qword ptr [rsi]; mov qword ptr [rdi + rdx - 8], rcx; mov qword ptr [rdi], rsi; ret; 
0x000000000001dcaf: mov ecx, dword ptr [rsp + 0x10]; mov rdi, qword ptr [rsp + 0x18]; call rcx; 
0x000000000001ad9b: mov ecx, dword ptr [rsp + 0x40]; add rsp, 0x48; jmp qword ptr [rax]; 
0x000000000001ad19: mov ecx, dword ptr [rsp + 0x40]; add rsp, 0x58; jmp qword ptr [rax]; 
0x0000000000012c3b: mov ecx, eax; cmp rcx, rdx; jne 0x12c18; mov eax, dword ptr [rcx]; ret; 
0x00000000000113e3: mov ecx, ebp; push r8; push qword ptr [rsp + 0x20]; mov r8, qword ptr [rsp + 0x20]; call rax; 
0x000000000001eb7f: mov ecx, esi; sub rcx, qword ptr [rax + 0x10]; cmp rcx, qword ptr [rax + 0x28]; jae 0x1eb70; mov eax, 1; ret; 
0x000000000001767a: mov ecx, esp; lea rdi, [rip + 0x169dd]; add r12d, 1; shl rcx, 4; lea rdi, [rdi + rcx + 0xe08]; call rax; 
0x0000000000017679: mov ecx, r12d; lea rdi, [rip + 0x169dd]; add r12d, 1; shl rcx, 4; lea rdi, [rdi + rcx + 0xe08]; call rax; 
0x00000000000046c6: mov edi, 0x1002; mov qword ptr [rbx + 0x10], rbx; syscall; 
0x00000000000045cc: mov edi, 0x288; add byte ptr [rcx + rcx*2 + 0xf], dh; xor dword ptr [rax - 0x77], ecx; ret; 
0x000000000001cbe9: mov edi, 0x3001; mov eax, 0x9e; syscall; 
0x000000000001b016: mov edi, 0x3003; mov eax, 0x9e; syscall; 
0x000000000001afa2: mov edi, 0x3005; mov eax, 0x9e; syscall; 
0x0000000000006338: mov edi, 0x85480001; sal byte ptr [rsi + rbp + 0x48], 0x89; ret 0x294c; 
0x00000000000016a3: mov edi, 0x8d480002; cmp eax, 0x24c83; call 0x12f0; add rsp, 0x40; pop rbx; ret; 
0x000000000001ef5c: mov edi, 0xffffff9c; mov eax, 0x101; syscall; 
0x000000000001ef5c: mov edi, 0xffffff9c; mov eax, 0x101; syscall; cmp rax, -0x1000; ja 0x1efa0; ret; 
0x0000000000005b80: mov edi, 1; call rax; 
0x0000000000012375: mov edi, dword ptr [rbp - 0x460]; lea rsi, [rbp - 0x430]; mov eax, 0x14; syscall; 
0x000000000001abc3: mov edi, dword ptr [rbp]; call rax; 
0x000000000001f3c0: mov edi, dword ptr [rdi + 0x28]; mov eax, esi; mov rsp, r8; mov rbp, r9; nop; jmp rdx; 
0x0000000000019f55: mov edi, dword ptr [rip + 0x1517d]; lea rax, [rdi - 1]; cmp rax, -3; jbe 0x19f70; ret; 
0x000000000001dcb4: mov edi, dword ptr [rsp + 0x18]; call rcx; 
0x000000000001ac58: mov edi, dword ptr [rsp - 8]; ret; 
0x000000000001d91f: mov edi, eax; cmp rdx, rcx; jae 0x1d908; mov rax, r8; ret; 
0x000000000001ea98: mov edi, ebp; call 0x1e670; add rsp, 0x98; pop rbp; pop r12; ret; 
0x0000000000011cf2: mov edi, ebp; call qword ptr [rax]; 
0x0000000000011b96: mov edi, ebp; call qword ptr [rbx]; 
0x000000000000d71c: mov edi, ebp; call qword ptr [rip + 0x218bc]; xor eax, eax; pop rbp; ret; 
0x0000000000011b58: mov edi, ebp; call rax; 
0x000000000001f17d: mov edi, ebp; mov eax, 9; syscall; 
0x000000000001dbef: mov edi, ebp; pop rbp; pop r12; jmp rax; 
0x000000000001d626: mov edi, ecx; sub rdx, rcx; call 0x23580; mov qword ptr [rip + 0x11ac1], rax; add rsp, 8; ret; 
0x000000000001a85f: mov edi, edi; call rax; 
0x0000000000005e35: mov edi, edi; call rcx; 
0x000000000001892b: mov edi, edi; dec dword ptr [rcx - 0x77]; ret; 
0x000000000001f2a8: mov edi, edx; mov eax, esi; syscall; 
0x000000000001f2b7: mov edi, edx; mov eax, r8d; syscall; 
0x000000000001dcfc: mov edi, edx; xor r12d, r12d; call rsi; 
0x000000000001ecd8: mov edi, esi; mov rsi, rdx; cmp r8d, 1; ja 0x1ed10; mov eax, 4; syscall; 
0x000000000001ed27: mov edi, esi; mov rsi, rdx; cmp r8d, 1; ja 0x1ed60; mov eax, 5; syscall; 
0x000000000001ed78: mov edi, esi; mov rsi, rdx; cmp r8d, 1; ja 0x1edb0; mov eax, 6; syscall; 
0x000000000001db66: mov edi, esp; pop rbp; pop r12; jmp rax; 
0x0000000000007ae0: mov edi, esp; shl rax, 4; lea r14, [r12 + rax + 0x480]; mov rdx, r14; call rcx; 
0x000000000001db65: mov edi, r12d; pop rbp; pop r12; jmp rax; 
0x0000000000014d7d: mov edx, 0; cmp rax, -1; cmove rax, rdx; ret; 
0x0000000000022c3a: mov edx, 0; lea rax, [rdi + rax]; cmp byte ptr [rax], sil; cmovne rax, rdx; ret; 
0x00000000000121d2: mov edx, 0x660000b5; nop dword ptr cs:[rax + rax]; endbr64; ret; 
0x000000000001c271: mov edx, 0x6d726570; imul esi, dword ptr [rbx + 0x73], 0x10394869; je 0x1c2a0; ret; 
0x000000000001c301: mov edx, 0x6d726570; imul esi, dword ptr [rbx + 0x73], 0x10394869; je 0x1c330; ret; 
0x0000000000023678: mov edx, 0xd8f70000; mov dword ptr [rcx], eax; or rax, 0xffffffffffffffff; ret; 
0x000000000000cc89: mov edx, 1; mov esi, 0x81; mov eax, 0xca; syscall; 
0x000000000001f493: mov edx, 8; mov eax, 0xd; syscall; 
0x000000000000e991: mov edx, dword ptr [rbp - 0xc8]; mov rax, qword ptr [rbx + 0x10]; add rax, qword ptr [r15]; test edx, edx; jne 0xe9a4; call rax; 
0x0000000000012233: mov edx, dword ptr [rcx + rdx]; lea rcx, [rip - 0x5d]; mov qword ptr [rax + 0x10], rcx; mov qword ptr [rax + 8], rdx; ret; 
0x000000000001ebdf: mov edx, dword ptr [rip + 0x1054b]; add word ptr [rdx + rax*2], 1; ret; 
0x000000000001ad96: mov edx, dword ptr [rsp + 0x38]; mov rcx, qword ptr [rsp + 0x40]; add rsp, 0x48; jmp qword ptr [rax]; 
0x000000000001ad14: mov edx, dword ptr [rsp + 0x38]; mov rcx, qword ptr [rsp + 0x40]; add rsp, 0x58; jmp qword ptr [rax]; 
0x000000000001ef57: mov edx, eax; mov rsi, r9; mov edi, 0xffffff9c; mov eax, 0x101; syscall; 
0x0000000000011b50: mov edx, ebp; add rax, qword ptr [rbx]; mov rsi, r12; mov edi, ebp; call rax; 
0x0000000000011ced: mov edx, ebp; mov rsi, r12; mov edi, ebp; call qword ptr [rax]; 
0x0000000000011b91: mov edx, ebp; mov rsi, r12; mov edi, ebp; call qword ptr [rbx]; 
0x000000000001f17a: mov edx, ebx; mov rdi, rbp; mov eax, 9; syscall; 
0x000000000001e780: mov edx, ecx; cmp r9d, 1; ja 0x1e7b0; mov eax, 0x106; syscall; 
0x000000000001f055: mov edx, ecx; mov eax, 0x11; syscall; 
0x000000000001f055: mov edx, ecx; mov eax, 0x11; syscall; cmp rax, -0x1000; ja 0x1f070; ret; 
0x000000000001f1bf: mov edx, ecx; mov ecx, 9; xor edi, edi; or r10d, 0x40; mov eax, ecx; syscall; 
0x000000000001d91c: mov edx, edi; mov rdi, rax; cmp rdx, rcx; jae 0x1d908; mov rax, r8; ret; 
0x0000000000007aef: mov edx, esi; call rcx; 
0x0000000000005e30: mov edx, esi; xor esi, esi; mov rdi, r15; call rcx; 
0x000000000001dbed: mov edx, esp; mov edi, ebp; pop rbp; pop r12; jmp rax; 
0x000000000001ef56: mov edx, r8d; mov rsi, r9; mov edi, 0xffffff9c; mov eax, 0x101; syscall; 
0x000000000001ee95: mov esi, 0x10; mov eax, 0x48; syscall; 
0x000000000000cc8e: mov esi, 0x81; mov eax, 0xca; syscall; 
0x000000000001c5da: mov esi, 0xf7000110; ret 0; 
0x0000000000007d00: mov esi, 1; add ebx, 1; shl rax, 4; lea rdi, [r14 + rax + 0xe08]; call rdx; 
0x0000000000007cbb: mov esi, 1; add ebx, 1; shl rax, 4; lea rdi, [r15 + rax + 0x480]; call rdx; 
0x0000000000006222: mov esi, 1; call rdx; 
0x0000000000017aca: mov esi, 2; add r12d, 1; shl rax, 4; lea rdi, [r13 + rax + 0x480]; call rcx; 
0x0000000000017d45: mov esi, 2; add r12d, 1; shl rax, 4; lea rdi, [rdi + rax + 0xe08]; call rcx; 
0x0000000000011a2c: mov esi, dword ptr [r13 + 0x10]; push qword ptr [rsp + 8]; call rax; 
0x0000000000011a2d: mov esi, dword ptr [rbp + 0x10]; push qword ptr [rsp + 8]; call rax; 
0x0000000000007adc: mov esi, dword ptr [rbp + 0x28]; mov rdi, r12; shl rax, 4; lea r14, [r12 + rax + 0x480]; mov rdx, r14; call rcx; 
0x000000000001db5e: mov esi, dword ptr [rbp]; add rsp, 0x18; mov edi, r12d; pop rbp; pop r12; jmp rax; 
0x0000000000011691: mov esi, dword ptr [rbx + 0x10]; add r9, r8; lea r8, [rsp + 0x34]; call rax; 
0x00000000000113df: mov esi, dword ptr [rbx + 0x10]; mov r9, rbp; push r8; push qword ptr [rsp + 0x20]; mov r8, qword ptr [rsp + 0x20]; call rax; 
0x000000000000dc87: mov esi, dword ptr [rbx]; mov rax, qword ptr [rbx + 0x10]; add rax, qword ptr [r13]; call rax; 
0x0000000000019f75: mov esi, dword ptr [rip + 0x1514d]; call 0x1f200; mov qword ptr [rip + 0x1514d], 0; add rsp, 8; ret; 
0x00000000000016a0: mov esi, dword ptr [rip + 0x2bf42]; lea rdi, [rip + 0x24c83]; call 0x12f0; add rsp, 0x40; pop rbx; ret; 
0x00000000000233e0: mov esi, dword ptr [rsi]; mov dword ptr [rdi + rdx - 4], ecx; mov dword ptr [rdi], esi; ret; 
0x00000000000233d1: mov esi, dword ptr [rsi]; mov qword ptr [rdi + rdx - 8], rcx; mov qword ptr [rdi], rsi; ret; 
0x000000000001ac4a: mov esi, dword ptr [rsp - 0x10]; sub rax, qword ptr fs:[0]; mov rdi, qword ptr [rsp - 8]; ret; 
0x0000000000014f2f: mov esi, ebp; syscall; 
0x00000000000046bf: mov esi, ebx; mov eax, 0x9e; mov edi, 0x1002; mov qword ptr [rbx + 0x10], rbx; syscall; 
0x000000000001ef5a: mov esi, ecx; mov edi, 0xffffff9c; mov eax, 0x101; syscall; 
0x000000000001ecdb: mov esi, edx; cmp r8d, 1; ja 0x1ed10; mov eax, 4; syscall; 
0x000000000001ed2a: mov esi, edx; cmp r8d, 1; ja 0x1ed60; mov eax, 5; syscall; 
0x000000000001ed7b: mov esi, edx; cmp r8d, 1; ja 0x1edb0; mov eax, 6; syscall; 
0x000000000001e77d: mov esi, edx; mov rdx, rcx; cmp r9d, 1; ja 0x1e7b0; mov eax, 0x106; syscall; 
0x000000000001cbe7: mov esi, esi; mov edi, 0x3001; mov eax, 0x9e; syscall; 
0x0000000000011cf0: mov esi, esp; mov edi, ebp; call qword ptr [rax]; 
0x0000000000011b94: mov esi, esp; mov edi, ebp; call qword ptr [rbx]; 
0x0000000000011b56: mov esi, esp; mov edi, ebp; call rax; 
0x0000000000022551: mov esp, 0x448d48c0; cmp al, dh; ret; 
0x0000000000022581: mov esp, 0x448d48c0; cmp byte ptr [rax], ah; ret; 
0x0000000000022571: mov esp, 0x448d48c0; cmp byte ptr [rax], dl; ret; 
0x0000000000022c38: mov esp, 0xbac0; add byte ptr [rax], al; lea rax, [rdi + rax]; cmp byte ptr [rax], sil; cmovne rax, rdx; ret; 
0x000000000002232a: mov esp, 0xc22948c0; jbe 0x225d0; add rax, rdi; add rax, rcx; ret; 
0x0000000000022591: mov esp, 0xc22948c0; jbe 0x225d0; add rax, rdi; ret; 
0x00000000000225a1: mov esp, 0xc22948c0; jbe 0x225d0; lea rax, [rdi + rax + 0x10]; ret; 
0x00000000000225b1: mov esp, 0xc22948c0; jbe 0x225d0; lea rax, [rdi + rax + 0x20]; ret; 
0x00000000000225c1: mov esp, 0xc22948c0; jbe 0x225d0; lea rax, [rdi + rax + 0x30]; ret; 
0x0000000000022fb3: mov esp, 0xd00148d2; sub rax, rdi; ret; 
0x0000000000022282: mov esp, 0xd32949d2; jbe 0x22294; movzx ecx, byte ptr [rsi + rdx]; movzx eax, byte ptr [rdi + rdx]; sub eax, ecx; ret; 
0x000000000002264b: mov esp, 0xf80148c0; add rax, rcx; ret; 
0x0000000000022561: mov esp, 0xf80148c0; ret; 
0x000000000001dfd3: mov esp, 0xffffffff; add rsp, 8; mov rax, r12; pop rbx; pop r12; ret; 
0x000000000001f3c6: mov esp, eax; mov rbp, r9; nop; jmp rdx; 
0x000000000001dca8: mov esp, eax; test eax, eax; jne 0x1dd20; mov rcx, qword ptr [rsp + 0x10]; mov rdi, qword ptr [rsp + 0x18]; call rcx; 
0x000000000001aded: mov esp, ebp; pop rbp; ret; 
0x000000000001ecc6: mov gs, ecx; add byte ptr [rax], al; ret; 
0x0000000000014750: mov qword ptr [r12 + 8], rax; mov rax, r12; pop rbx; pop rbp; pop r12; ret; 
0x000000000001223d: mov qword ptr [rax + 0x10], rcx; mov qword ptr [rax + 8], rdx; ret; 
0x000000000001a01a: mov qword ptr [rax + 0x20], rcx; mov byte ptr [rax + 0x28], 1; ret; 
0x000000000001a028: mov qword ptr [rax + 0x20], rsi; ret; 
0x0000000000012241: mov qword ptr [rax + 8], rdx; ret; 
0x0000000000017ac6: mov qword ptr [rbp - 0x48], r11; mov esi, 2; add r12d, 1; shl rax, 4; lea rdi, [r13 + rax + 0x480]; call rcx; 
0x00000000000022ac: mov qword ptr [rbp - 0x48], rdi; call rax; 
0x00000000000022a8: mov qword ptr [rbp - 0x50], rcx; mov qword ptr [rbp - 0x48], rdi; call rax; 
0x00000000000022a4: mov qword ptr [rbp - 0x58], rdx; mov qword ptr [rbp - 0x50], rcx; mov qword ptr [rbp - 0x48], rdi; call rax; 
0x00000000000022a0: mov qword ptr [rbp - 0x60], rsi; mov qword ptr [rbp - 0x58], rdx; mov qword ptr [rbp - 0x50], rcx; mov qword ptr [rbp - 0x48], rdi; call rax; 
0x000000000000ead7: mov qword ptr [rbp - 0xd8], r11; call rax; 
0x0000000000019275: mov qword ptr [rbx + 0x10], 0; movups xmmword ptr [rbx], xmm0; pop rbx; ret; 
0x000000000000121e: mov qword ptr [rbx + 0x10], rax; add rsp, 0x10; pop rbx; ret; 
0x00000000000046cb: mov qword ptr [rbx + 0x10], rbx; syscall; 
0x00000000000012e9: mov qword ptr [rbx + 0x18], rax; pop rbx; ret; 
0x000000000000f515: mov qword ptr [rbx + 0x20], rax; pop rbx; ret; 
0x00000000000011ae: mov qword ptr [rbx + 8], rax; pop rax; pop rdx; pop rbx; ret; 
0x0000000000015167: mov qword ptr [rbx], 0; pop rbx; or dword ptr [rip + 0x19e22], 1; ret; 
0x00000000000111dd: mov qword ptr [rbx], rax; add rsp, 0x10; pop rbx; ret; 
0x000000000001f100: mov qword ptr [rbx], rax; mov eax, 1; pop rbx; pop rbp; pop r12; ret; 
0x00000000000046bb: mov qword ptr [rbx], rbx; mov rsi, rbx; mov eax, 0x9e; mov edi, 0x1002; mov qword ptr [rbx + 0x10], rbx; syscall; 
0x0000000000019fae: mov qword ptr [rdi + 0x20], rdx; mov byte ptr [rdi + 0x28], 1; ret; 
0x0000000000019fc0: mov qword ptr [rdi + 0x20], rsi; ret; 
0x000000000000d13c: mov qword ptr [rdi + 0x308], rax; ret; 
0x000000000000d10a: mov qword ptr [rdi + 0x310], rax; ret; 
0x000000000001f348: mov qword ptr [rdi + 0x58], rax; xor eax, eax; ret; 
0x0000000000023645: mov qword ptr [rdi + rdx - 8], rcx; mov qword ptr [rdi], rcx; ret; 
0x00000000000233d3: mov qword ptr [rdi + rdx - 8], rcx; mov qword ptr [rdi], rsi; ret; 
0x000000000001469b: mov qword ptr [rdi], rax; mov rax, qword ptr [rip + 0x1a923]; mov qword ptr [rsi], rax; ret; 
0x000000000001d98c: mov qword ptr [rdi], rax; mov rax, r8; ret; 
0x000000000002364a: mov qword ptr [rdi], rcx; ret; 
0x000000000001d3fe: mov qword ptr [rdi], rdx; ret; 
0x00000000000233d8: mov qword ptr [rdi], rsi; ret; 
0x000000000001df53: mov qword ptr [rip + 0x111b6], rax; cmp rdi, rax; ja 0x1df80; xor eax, eax; ret; 
0x000000000001c51d: mov qword ptr [rip + 0x111e4], rax; add rsp, 0x88; pop rbx; ret; 
0x000000000001ddc9: mov qword ptr [rip + 0x11330], rbx; add rsp, 8; pop rbx; pop rbp; ret; 
0x000000000001ddb9: mov qword ptr [rip + 0x11340], r8; call rsi; 
0x000000000001ddae: mov qword ptr [rip + 0x1134f], 0; mov qword ptr [rip + 0x11340], r8; call rsi; 
0x000000000001dd08: mov qword ptr [rip + 0x113f9], rax; add rsp, 0x110; mov eax, r12d; pop r12; ret; 
0x000000000001d630: mov qword ptr [rip + 0x11ac1], rax; add rsp, 8; ret; 
0x000000000001d4ee: mov qword ptr [rip + 0x11c03], rcx; add rsp, 8; pop rbx; pop rbp; ret; 
0x0000000000019f80: mov qword ptr [rip + 0x1514d], 0; add rsp, 8; ret; 
0x0000000000014378: mov qword ptr [rip + 0x1ac21], rax; ret; 
0x0000000000001cab: mov qword ptr [rip + 0x2d31e], rax; mov eax, 0x9e; mov qword ptr [rsi], rsi; mov qword ptr [rsi + 0x10], rsi; syscall; 
0x0000000000001cba: mov qword ptr [rsi + 0x10], rsi; syscall; 
0x00000000000146a5: mov qword ptr [rsi], rax; ret; 
0x0000000000012d34: mov qword ptr [rsi], rdi; mov rax, r8; ret; 
0x0000000000001cb7: mov qword ptr [rsi], rsi; mov qword ptr [rsi + 0x10], rsi; syscall; 
0x0000000000011acd: mov qword ptr [rsp + 0x10], r9; call rax; 
0x0000000000012a27: mov qword ptr [rsp + 0x18], rax; call 0x12290; add rsp, 0xd8; ret; 
0x000000000001ee70: mov qword ptr [rsp - 0x38], rax; cmp esi, 9; je 0x1ee90; mov eax, 0x48; syscall; 
0x00000000000233d2: mov qword ptr ss:[rdi + rdx - 8], rcx; mov qword ptr [rdi], rsi; ret; 
0x0000000000001cb9: mov qword ptr ss:[rsi + 0x10], rsi; syscall; 
0x000000000001f054: mov r10, rcx; mov eax, 0x11; syscall; 
0x000000000001f054: mov r10, rcx; mov eax, 0x11; syscall; cmp rax, -0x1000; ja 0x1f070; ret; 
0x000000000001f492: mov r10d, 8; mov eax, 0xd; syscall; 
0x000000000001f179: mov r10d, ebx; mov rdi, rbp; mov eax, 9; syscall; 
0x000000000001f1be: mov r10d, ecx; mov ecx, 9; xor edi, edi; or r10d, 0x40; mov eax, ecx; syscall; 
0x000000000001ad90: mov r11, qword ptr [rsp + 0x30]; mov rdx, qword ptr [rsp + 0x38]; mov rcx, qword ptr [rsp + 0x40]; add rsp, 0x48; jmp qword ptr [rax]; 
0x000000000001ad0e: mov r11, qword ptr [rsp + 0x30]; mov rdx, qword ptr [rsp + 0x38]; mov rcx, qword ptr [rsp + 0x40]; add rsp, 0x58; jmp qword ptr [rax]; 
0x000000000000e1d8: mov r11d, dword ptr [rbp - 0xc8]; mov rax, qword ptr [rbx + 0x10]; add rax, qword ptr [r15]; test r11d, r11d; jne 0xe1ed; call rax; 
0x000000000001dfd2: mov r12, -1; add rsp, 8; mov rax, r12; pop rbx; pop r12; ret; 
0x000000000001dca7: mov r12d, eax; test eax, eax; jne 0x1dd20; mov rcx, qword ptr [rsp + 0x10]; mov rdi, qword ptr [rsp + 0x18]; call rcx; 
0x000000000000dc86: mov r14, qword ptr [rbx]; mov rax, qword ptr [rbx + 0x10]; add rax, qword ptr [r13]; call rax; 
0x000000000001f3bf: mov r15, qword ptr [rdi + 0x28]; mov eax, esi; mov rsp, r8; mov rbp, r9; nop; jmp rdx; 
0x000000000001446d: mov r8, qword ptr [rip + 0x1ab2c]; mov rax, r8; ret; 
0x000000000001436b: mov r8, qword ptr [rip + 0x1ac2e]; jne 0x14380; lea rax, [r8 + 1]; mov qword ptr [rip + 0x1ac21], rax; ret; 
0x00000000000113eb: mov r8, qword ptr [rsp + 0x20]; call rax; 
0x00000000000022aa: mov r8b, 0x48; mov dword ptr [rbp - 0x48], edi; call rax; 
0x00000000000107d4: mov r8b, 0xf; xchg eax, ebp; ret 0x2148; 
0x000000000001168e: mov r8d, dword ptr [rsi]; mov esi, dword ptr [rbx + 0x10]; add r9, r8; lea r8, [rsp + 0x34]; call rax; 
0x00000000000113e2: mov r9, rbp; push r8; push qword ptr [rsp + 0x20]; mov r8, qword ptr [rsp + 0x20]; call rax; 
0x000000000001f56a: mov r9d, 0xffffffff; mov dword ptr [rip + 0xfbca], eax; mov eax, r9d; add rsp, 0xd0; ret; 
0x000000000001eb10: mov rax, -1; ret; 
0x000000000001f3e0: mov rax, 0xf; syscall; 
0x000000000001696b: mov rax, qword ptr [r12]; pop rbx; add rax, qword ptr [rdx + 8]; pop rbp; pop r12; jmp rax; 
0x000000000001a855: mov rax, qword ptr [r14 + 0x18]; test rax, rax; je 0x1a867; mov rdi, r15; call rax; 
0x0000000000011f84: mov rax, qword ptr [rax + 8]; add rax, qword ptr [r15]; call rax; 
0x0000000000011b4b: mov rax, qword ptr [rax + 8]; mov rdx, r13; add rax, qword ptr [rbx]; mov rsi, r12; mov edi, ebp; call rax; 
0x000000000001abe4: mov rax, qword ptr [rax + 8]; ret; 
0x000000000001abf4: mov rax, qword ptr [rax + 8]; sub rax, qword ptr fs:[0]; ret; 
0x0000000000001217: mov rax, qword ptr [rax]; add rax, qword ptr [rdx + 8]; mov qword ptr [rbx + 0x10], rax; add rsp, 0x10; pop rbx; ret; 
0x000000000001abb9: mov rax, qword ptr [rbp + 0x18]; test rax, rax; je 0x1abc8; mov rdi, qword ptr [rbp]; call rax; 
0x0000000000014cd7: mov rax, qword ptr [rbp + 8]; pop rbp; add rax, rdx; ret; 
0x0000000000005b70: mov rax, qword ptr [rbp - 0x150]; test rax, rax; je 0x5dca; mov edi, 1; call rax; 
0x000000000000eacb: mov rax, qword ptr [rbx + 0x10]; add rax, qword ptr [r11]; test r9d, r9d; jne 0xeae7; mov qword ptr [rbp - 0xd8], r11; call rax; 
0x000000000000dc89: mov rax, qword ptr [rbx + 0x10]; add rax, qword ptr [r13]; call rax; 
0x000000000001deb6: mov rax, qword ptr [rbx + 0x10]; add rax, qword ptr [r14]; call rax; 
0x000000000000e0ca: mov rax, qword ptr [rbx + 0x10]; add rax, qword ptr [r15]; test ecx, ecx; jne 0xe0d7; call rax; 
0x000000000000e997: mov rax, qword ptr [rbx + 0x10]; add rax, qword ptr [r15]; test edx, edx; jne 0xe9a4; call rax; 
0x000000000000e1df: mov rax, qword ptr [rbx + 0x10]; add rax, qword ptr [r15]; test r11d, r11d; jne 0xe1ed; call rax; 
0x000000000001ab24: mov rax, qword ptr [rdi]; cmp rax, rsi; je 0x1ab30; ret; 
0x0000000000014d20: mov rax, qword ptr [rdx + rax]; cmp rax, -1; je 0x14d38; add rax, qword ptr [rdi + 8]; ret; 
0x000000000001add0: mov rax, qword ptr [rdx + rax]; cmp rax, -1; je 0x1addf; add rax, qword ptr [rdi + 8]; ret; 
0x0000000000014d79: mov rax, qword ptr [rdx + rax]; mov edx, 0; cmp rax, -1; cmove rax, rdx; ret; 
0x0000000000014694: mov rax, qword ptr [rip + 0x1a91d]; mov qword ptr [rdi], rax; mov rax, qword ptr [rip + 0x1a923]; mov qword ptr [rsi], rax; ret; 
0x000000000001469e: mov rax, qword ptr [rip + 0x1a923]; mov qword ptr [rsi], rax; ret; 
0x000000000001dd03: mov rax, qword ptr [rsp + 8]; mov qword ptr [rip + 0x113f9], rax; add rsp, 0x110; mov eax, r12d; pop r12; ret; 
0x0000000000014775: mov rax, r12; pop r12; ret; 
0x00000000000097bf: mov rax, r12; pop rbp; pop r12; pop r13; pop r14; ret; 
0x0000000000006742: mov rax, r12; pop rbp; pop r12; pop r13; ret; 
0x000000000001dfdd: mov rax, r12; pop rbx; pop r12; ret; 
0x000000000000670a: mov rax, r12; pop rbx; pop rbp; pop r12; pop r13; ret; 
0x0000000000014755: mov rax, r12; pop rbx; pop rbp; pop r12; ret; 
0x000000000000f4a8: mov rax, r12; sar rax, 3; pop rbx; pop rbp; pop r12; ret; 
0x0000000000012da1: mov rax, r8; neg rax; test cl, cl; cmove r8, rax; mov rax, r8; ret; 
0x0000000000012d37: mov rax, r8; ret; 
0x000000000001d844: mov rax, rbp; pop rbx; pop rbp; ret; 
0x00000000000232c8: mov rax, rdx; ret; 
0x0000000000001cf2: mov rax, rsi; mov byte ptr [rip + 0x2d31c], 1; pop rbx; ret; 
0x0000000000001d13: mov rax, rsi; ret; 
0x000000000001f3c8: mov rbp, r9; nop; jmp rdx; 
0x000000000001e042: mov rbp, rsi; push rbx; mov rbx, rdi; sub rsp, 0xe8; syscall; 
0x000000000001ade0: mov rbp, rsp; and rsp, 0xfffffffffffffff0; call 0x14ed0; mov rsp, rbp; pop rbp; ret; 
0x0000000000014f2b: mov rbp, rsp; mov rsi, rbp; syscall; 
0x00000000000142fb: mov rbx, rax; call rcx; 
0x000000000001e046: mov rbx, rdi; sub rsp, 0xe8; syscall; 
0x000000000001d604: mov rcx, qword ptr [rip + 0x11add]; cmp rcx, rdi; je 0x1d618; ret; 
0x00000000000233cb: mov rcx, qword ptr [rsi + rdx - 8]; mov rsi, qword ptr [rsi]; mov qword ptr [rdi + rdx - 8], rcx; mov qword ptr [rdi], rsi; ret; 
0x000000000001dcae: mov rcx, qword ptr [rsp + 0x10]; mov rdi, qword ptr [rsp + 0x18]; call rcx; 
0x000000000001ad9a: mov rcx, qword ptr [rsp + 0x40]; add rsp, 0x48; jmp qword ptr [rax]; 
0x000000000001ad18: mov rcx, qword ptr [rsp + 0x40]; add rsp, 0x58; jmp qword ptr [rax]; 
0x0000000000012c3a: mov rcx, rax; cmp rcx, rdx; jne 0x12c18; mov eax, dword ptr [rcx]; ret; 
0x000000000001eb7e: mov rcx, rsi; sub rcx, qword ptr [rax + 0x10]; cmp rcx, qword ptr [rax + 0x28]; jae 0x1eb70; mov eax, 1; ret; 
0x000000000001abc2: mov rdi, qword ptr [rbp]; call rax; 
0x0000000000019f54: mov rdi, qword ptr [rip + 0x1517d]; lea rax, [rdi - 1]; cmp rax, -3; jbe 0x19f70; ret; 
0x000000000001dcb3: mov rdi, qword ptr [rsp + 0x18]; call rcx; 
0x000000000001ac57: mov rdi, qword ptr [rsp - 8]; ret; 
0x0000000000007adf: mov rdi, r12; shl rax, 4; lea r14, [r12 + rax + 0x480]; mov rdx, r14; call rcx; 
0x000000000001a85e: mov rdi, r15; call rax; 
0x0000000000005e34: mov rdi, r15; call rcx; 
0x000000000001d91e: mov rdi, rax; cmp rdx, rcx; jae 0x1d908; mov rax, r8; ret; 
0x000000000000d71b: mov rdi, rbp; call qword ptr [rip + 0x218bc]; xor eax, eax; pop rbp; ret; 
0x000000000001f17c: mov rdi, rbp; mov eax, 9; syscall; 
0x000000000001d625: mov rdi, rcx; sub rdx, rcx; call 0x23580; mov qword ptr [rip + 0x11ac1], rax; add rsp, 8; ret; 
0x000000000001dcfb: mov rdi, rdx; xor r12d, r12d; call rsi; 
0x000000000001ecd7: mov rdi, rsi; mov rsi, rdx; cmp r8d, 1; ja 0x1ed10; mov eax, 4; syscall; 
0x000000000001ed77: mov rdi, rsi; mov rsi, rdx; cmp r8d, 1; ja 0x1edb0; mov eax, 6; syscall; 
0x0000000000012232: mov rdx, qword ptr [rcx + rdx]; lea rcx, [rip - 0x5d]; mov qword ptr [rax + 0x10], rcx; mov qword ptr [rax + 8], rdx; ret; 
0x000000000001ebde: mov rdx, qword ptr [rip + 0x1054b]; add word ptr [rdx + rax*2], 1; ret; 
0x000000000001ad95: mov rdx, qword ptr [rsp + 0x38]; mov rcx, qword ptr [rsp + 0x40]; add rsp, 0x48; jmp qword ptr [rax]; 
0x000000000001ad13: mov rdx, qword ptr [rsp + 0x38]; mov rcx, qword ptr [rsp + 0x40]; add rsp, 0x58; jmp qword ptr [rax]; 
0x000000000001dbec: mov rdx, r12; mov edi, ebp; pop rbp; pop r12; jmp rax; 
0x0000000000011b4f: mov rdx, r13; add rax, qword ptr [rbx]; mov rsi, r12; mov edi, ebp; call rax; 
0x0000000000011cec: mov rdx, r13; mov rsi, r12; mov edi, ebp; call qword ptr [rax]; 
0x0000000000011b90: mov rdx, r13; mov rsi, r12; mov edi, ebp; call qword ptr [rbx]; 
0x0000000000007aee: mov rdx, r14; call rcx; 
0x0000000000005e2f: mov rdx, r14; xor esi, esi; mov rdi, r15; call rcx; 
0x000000000001e77f: mov rdx, rcx; cmp r9d, 1; ja 0x1e7b0; mov eax, 0x106; syscall; 
0x000000000001d91b: mov rdx, rdi; mov rdi, rax; cmp rdx, rcx; jae 0x1d908; mov rax, r8; ret; 
0x0000000000007adb: mov rsi, qword ptr [rbp + 0x28]; mov rdi, r12; shl rax, 4; lea r14, [r12 + rax + 0x480]; mov rdx, r14; call rcx; 
0x000000000001db5d: mov rsi, qword ptr [rbp]; add rsp, 0x18; mov edi, r12d; pop rbp; pop r12; jmp rax; 
0x0000000000019f74: mov rsi, qword ptr [rip + 0x1514d]; call 0x1f200; mov qword ptr [rip + 0x1514d], 0; add rsp, 8; ret; 
0x000000000000169f: mov rsi, qword ptr [rip + 0x2bf42]; lea rdi, [rip + 0x24c83]; call 0x12f0; add rsp, 0x40; pop rbx; ret; 
0x00000000000233d0: mov rsi, qword ptr [rsi]; mov qword ptr [rdi + rdx - 8], rcx; mov qword ptr [rdi], rsi; ret; 
0x000000000001ac49: mov rsi, qword ptr [rsp - 0x10]; sub rax, qword ptr fs:[0]; mov rdi, qword ptr [rsp - 8]; ret; 
0x0000000000011cef: mov rsi, r12; mov edi, ebp; call qword ptr [rax]; 
0x0000000000011b93: mov rsi, r12; mov edi, ebp; call qword ptr [rbx]; 
0x0000000000011b55: mov rsi, r12; mov edi, ebp; call rax; 
0x000000000001cbe6: mov rsi, r14; mov edi, 0x3001; mov eax, 0x9e; syscall; 
0x000000000001ef59: mov rsi, r9; mov edi, 0xffffff9c; mov eax, 0x101; syscall; 
0x0000000000014f2e: mov rsi, rbp; syscall; 
0x00000000000046be: mov rsi, rbx; mov eax, 0x9e; mov edi, 0x1002; mov qword ptr [rbx + 0x10], rbx; syscall; 
0x000000000001ecda: mov rsi, rdx; cmp r8d, 1; ja 0x1ed10; mov eax, 4; syscall; 
0x000000000001ed29: mov rsi, rdx; cmp r8d, 1; ja 0x1ed60; mov eax, 5; syscall; 
0x000000000001ed7a: mov rsi, rdx; cmp r8d, 1; ja 0x1edb0; mov eax, 6; syscall; 
0x000000000001e77c: mov rsi, rdx; mov rdx, rcx; cmp r9d, 1; ja 0x1e7b0; mov eax, 0x106; syscall; 
0x000000000001f3c5: mov rsp, r8; mov rbp, r9; nop; jmp rdx; 
0x000000000001adec: mov rsp, rbp; pop rbp; ret; 
0x000000000001d6d1: mov word ptr [rax + 4], dx; ret; 
0x0000000000023655: mov word ptr [rdi + rdx - 2], cx; mov word ptr [rdi], cx; ret; 
0x00000000000233f1: mov word ptr [rdi + rdx - 2], cx; mov word ptr [rdi], si; ret; 
0x000000000002365a: mov word ptr [rdi], cx; ret; 
0x00000000000233f6: mov word ptr [rdi], si; ret; 
0x00000000000233f0: mov word ptr ss:[rdi + rdx - 2], cx; mov word ptr [rdi], si; ret; 
0x00000000000022a3: movabs al, byte ptr [0xb04d8948a8558948]; mov qword ptr [rbp - 0x48], rdi; call rax; 
0x0000000000001cec: movabs al, byte ptr [0xf08948deeb0001d5]; mov byte ptr [rip + 0x2d31c], 1; pop rbx; ret; 
0x000000000001ed9c: movabs al, byte ptr [0xffffffffb8000103]; ret; 
0x00000000000032ba: movabs byte ptr [0x8b4dda014c0002a2], al; sbb dword ptr [rax + 1], ecx; ret; 
0x0000000000012239: movabs dword ptr [0x4810488948ffffff], eax; mov dword ptr [rax + 8], edx; ret; 
0x000000000001d081: movabs dword ptr [0x48d48c689000000], eax; jbe 0x1d09b; mov dh, 0x44; ret; 
0x000000000001c8f1: movabs eax, dword ptr [0x8b48001f0f000001]; or byte ptr [rax - 0x7d], cl; ret 0xc610; 
0x000000000001c270: movabs rdx, 0x697373696d726570; cmp qword ptr [rax], rdx; je 0x1c2a0; ret; 
0x000000000001c300: movabs rdx, 0x697373696d726570; cmp qword ptr [rax], rdx; je 0x1c330; ret; 
0x000000000001eca8: movaps xmmword ptr [rsp], xmm1; call 0x23660; add rsp, 0xc8; ret; 
0x000000000001926d: movd esi, mm7; jmp qword ptr [rsi + 0xf]; 
0x000000000001eca2: movdqa xmm1, xmmword ptr [rsp + 0x10]; movaps xmmword ptr [rsp], xmm1; call 0x23660; add rsp, 0xc8; ret; 
0x00000000000235bd: movdqu xmmword ptr [rdi + 0x10], xmm0; movdqu xmmword ptr [rdi + rdx - 0x10], xmm0; movdqu xmmword ptr [rdi + rdx - 0x20], xmm0; ret; 
0x00000000000235c2: movdqu xmmword ptr [rdi + rdx - 0x10], xmm0; movdqu xmmword ptr [rdi + rdx - 0x20], xmm0; ret; 
0x00000000000235a8: movdqu xmmword ptr [rdi + rdx - 0x10], xmm0; movdqu xmmword ptr [rdi], xmm0; ret; 
0x00000000000235c8: movdqu xmmword ptr [rdi + rdx - 0x20], xmm0; ret; 
0x00000000000235b9: movdqu xmmword ptr [rdi], xmm0; movdqu xmmword ptr [rdi + 0x10], xmm0; movdqu xmmword ptr [rdi + rdx - 0x10], xmm0; movdqu xmmword ptr [rdi + rdx - 0x20], xmm0; ret; 
0x00000000000235ae: movdqu xmmword ptr [rdi], xmm0; ret; 
0x000000000002365c: movnti dword ptr [rsi - 0x70], esp; endbr64; mov eax, 0x26; syscall; 
0x000000000001eca3: movq mm1, qword ptr [rsp + 0x10]; movaps xmmword ptr [rsp], xmm1; call 0x23660; add rsp, 0xc8; ret; 
0x00000000000235be: movq qword ptr [rdi + 0x10], mm0; movdqu xmmword ptr [rdi + rdx - 0x10], xmm0; movdqu xmmword ptr [rdi + rdx - 0x20], xmm0; ret; 
0x00000000000235c3: movq qword ptr [rdi + rdx - 0x10], mm0; movdqu xmmword ptr [rdi + rdx - 0x20], xmm0; ret; 
0x00000000000235a9: movq qword ptr [rdi + rdx - 0x10], mm0; movdqu xmmword ptr [rdi], xmm0; ret; 
0x00000000000235c9: movq qword ptr [rdi + rdx - 0x20], mm0; ret; 
0x00000000000235ba: movq qword ptr [rdi], mm0; movdqu xmmword ptr [rdi + 0x10], xmm0; movdqu xmmword ptr [rdi + rdx - 0x10], xmm0; movdqu xmmword ptr [rdi + rdx - 0x20], xmm0; ret; 
0x00000000000235af: movq qword ptr [rdi], mm0; ret; 
0x000000000001c640: movsb byte ptr [rdi], byte ptr [rsi]; adc byte ptr [rcx], al; add bh, dh; ret 0; 
0x00000000000123d3: movsd dword ptr [rdi], dword ptr [rsi]; add al, 0; add byte ptr [rax + 0x63], cl; ret; 
0x00000000000195e0: movsx eax, dl; neg eax; ret; 
0x0000000000017d42: movsxd rax, dword ptr [rcx]; add byte ptr [rsi + 2], bh; add r12d, 1; shl rax, 4; lea rdi, [rdi + rax + 0xe08]; call rcx; 
0x0000000000019b96: movsxd rbp, dword ptr [rip + 0x3349646c]; add byte ptr [rax + 9], cl; ret 0x4475; 
0x0000000000012373: movsxd rdx, ebx; mov edi, dword ptr [rbp - 0x460]; lea rsi, [rbp - 0x430]; mov eax, 0x14; syscall; 
0x00000000000233a3: movups xmm0, xmmword ptr [rsi]; movups xmm1, xmmword ptr [rsi + rdx - 0x10]; movups xmmword ptr [rdi], xmm0; movups xmmword ptr [rdi + rdx - 0x10], xmm1; ret; 
0x00000000000233a6: movups xmm1, xmmword ptr [rsi + rdx - 0x10]; movups xmmword ptr [rdi], xmm0; movups xmmword ptr [rdi + rdx - 0x10], xmm1; ret; 
0x000000000002345c: movups xmm3, xmmword ptr [rsi + rdx - 0x20]; movups xmmword ptr [rdi], xmm0; movups xmmword ptr [rdi + 0x10], xmm1; movups xmmword ptr [rdi + rdx - 0x10], xmm2; movups xmmword ptr [rdi + rdx - 0x20], xmm3; ret; 
0x00000000000234f2: movups xmmword ptr [r11], xmm4; ret; 
0x000000000002356c: movups xmmword ptr [r11], xmm8; ret; 
0x000000000001f534: movups xmmword ptr [r8 + 0x58], xmm5; movups xmmword ptr [r8 + 0x68], xmm6; movups xmmword ptr [r8 + 0x78], xmm7; mov eax, r9d; add rsp, 0xd0; ret; 
0x000000000001f539: movups xmmword ptr [r8 + 0x68], xmm6; movups xmmword ptr [r8 + 0x78], xmm7; mov eax, r9d; add rsp, 0xd0; ret; 
0x000000000001f53e: movups xmmword ptr [r8 + 0x78], xmm7; mov eax, r9d; add rsp, 0xd0; ret; 
0x000000000001f535: movups xmmword ptr [rax + 0x58], xmm5; movups xmmword ptr [r8 + 0x68], xmm6; movups xmmword ptr [r8 + 0x78], xmm7; mov eax, r9d; add rsp, 0xd0; ret; 
0x000000000001f53a: movups xmmword ptr [rax + 0x68], xmm6; movups xmmword ptr [r8 + 0x78], xmm7; mov eax, r9d; add rsp, 0xd0; ret; 
0x000000000001f53f: movups xmmword ptr [rax + 0x78], xmm7; mov eax, r9d; add rsp, 0xd0; ret; 
0x000000000001dcd6: movups xmmword ptr [rax], xmm0; add rsp, 0x110; mov eax, r12d; pop r12; ret; 
0x000000000001e9a6: movups xmmword ptr [rbx + 0x38], xmm0; pop rbx; ret; 
0x000000000001927d: movups xmmword ptr [rbx], xmm0; pop rbx; ret; 
0x000000000002356d: movups xmmword ptr [rbx], xmm0; ret; 
0x00000000000234f3: movups xmmword ptr [rbx], xmm4; ret; 
0x00000000000234e5: movups xmmword ptr [rcx - 0x10], xmm6; movups xmmword ptr [rcx - 0x20], xmm7; movups xmmword ptr [rcx - 0x30], xmm8; movups xmmword ptr [r11], xmm4; ret; 
0x00000000000234e9: movups xmmword ptr [rcx - 0x20], xmm7; movups xmmword ptr [rcx - 0x30], xmm8; movups xmmword ptr [r11], xmm4; ret; 
0x00000000000234ee: movups xmmword ptr [rcx - 0x30], xmm0; movups xmmword ptr [r11], xmm4; ret; 
0x00000000000234ed: movups xmmword ptr [rcx - 0x30], xmm8; movups xmmword ptr [r11], xmm4; ret; 
0x00000000000234e2: movups xmmword ptr [rcx], xmm5; movups xmmword ptr [rcx - 0x10], xmm6; movups xmmword ptr [rcx - 0x20], xmm7; movups xmmword ptr [rcx - 0x30], xmm8; movups xmmword ptr [r11], xmm4; ret; 
0x0000000000023464: movups xmmword ptr [rdi + 0x10], xmm1; movups xmmword ptr [rdi + rdx - 0x10], xmm2; movups xmmword ptr [rdi + rdx - 0x20], xmm3; ret; 
0x0000000000023560: movups xmmword ptr [rdi + 0x10], xmm5; movups xmmword ptr [rdi + 0x20], xmm6; movups xmmword ptr [rdi + 0x30], xmm7; movups xmmword ptr [r11], xmm8; ret; 
0x0000000000023564: movups xmmword ptr [rdi + 0x20], xmm6; movups xmmword ptr [rdi + 0x30], xmm7; movups xmmword ptr [r11], xmm8; ret; 
0x0000000000023568: movups xmmword ptr [rdi + 0x30], xmm7; movups xmmword ptr [r11], xmm8; ret; 
0x00000000000233ae: movups xmmword ptr [rdi + rdx - 0x10], xmm1; ret; 
0x0000000000023468: movups xmmword ptr [rdi + rdx - 0x10], xmm2; movups xmmword ptr [rdi + rdx - 0x20], xmm3; ret; 
0x000000000002343b: movups xmmword ptr [rdi + rdx - 0x10], xmm4; movups xmmword ptr [rdi + rdx - 0x20], xmm5; movups xmmword ptr [rdi + rdx - 0x30], xmm6; movups xmmword ptr [rdi + rdx - 0x40], xmm7; ret; 
0x000000000002346d: movups xmmword ptr [rdi + rdx - 0x20], xmm3; ret; 
0x0000000000023440: movups xmmword ptr [rdi + rdx - 0x20], xmm5; movups xmmword ptr [rdi + rdx - 0x30], xmm6; movups xmmword ptr [rdi + rdx - 0x40], xmm7; ret; 
0x0000000000023445: movups xmmword ptr [rdi + rdx - 0x30], xmm6; movups xmmword ptr [rdi + rdx - 0x40], xmm7; ret; 
0x000000000002344a: movups xmmword ptr [rdi + rdx - 0x40], xmm7; ret; 
0x0000000000023461: movups xmmword ptr [rdi], xmm0; movups xmmword ptr [rdi + 0x10], xmm1; movups xmmword ptr [rdi + rdx - 0x10], xmm2; movups xmmword ptr [rdi + rdx - 0x20], xmm3; ret; 
0x00000000000233ab: movups xmmword ptr [rdi], xmm0; movups xmmword ptr [rdi + rdx - 0x10], xmm1; ret; 
0x000000000002355d: movups xmmword ptr [rdi], xmm4; movups xmmword ptr [rdi + 0x10], xmm5; movups xmmword ptr [rdi + 0x20], xmm6; movups xmmword ptr [rdi + 0x30], xmm7; movups xmmword ptr [r11], xmm8; ret; 
0x000000000001460a: movups xmmword ptr [rip + 0x1a9a7], xmm0; pop r14; ret; 
0x000000000001f48d: movups xmmword ptr [rsp + 0x10], xmm7; mov r10d, 8; mov eax, 0xd; syscall; 
0x000000000001f489: movups xmmword ptr [rsp], xmm6; movups xmmword ptr [rsp + 0x10], xmm7; mov r10d, 8; mov eax, 0xd; syscall; 
0x00000000000228e4: movzx eax, al; sar rdx, cl; movzx edx, dl; sub eax, edx; ret; 
0x0000000000020a28: movzx eax, byte ptr [rdi + rdx]; sub eax, ecx; ret; 
0x00000000000228c1: movzx eax, byte ptr [rdi]; movzx edx, byte ptr [rsi]; sub eax, edx; ret; 
0x0000000000020a43: movzx eax, byte ptr [rdi]; sub eax, ecx; ret; 
0x0000000000020a24: movzx ecx, byte ptr [rsi + rdx]; movzx eax, byte ptr [rdi + rdx]; sub eax, ecx; ret; 
0x00000000000233c5: movzx ecx, byte ptr [rsi]; mov byte ptr [rdi], cl; ret; 
0x0000000000020a40: movzx ecx, byte ptr [rsi]; movzx eax, byte ptr [rdi]; sub eax, ecx; ret; 
0x00000000000233e9: movzx ecx, word ptr [rsi + rdx - 2]; movzx esi, word ptr [rsi]; mov word ptr [rdi + rdx - 2], cx; mov word ptr [rdi], si; ret; 
0x00000000000228c4: movzx edx, byte ptr [rsi]; sub eax, edx; ret; 
0x00000000000228ea: movzx edx, dl; sub eax, edx; ret; 
0x00000000000233ee: movzx esi, word ptr [rsi]; mov word ptr [rdi + rdx - 2], cx; mov word ptr [rdi], si; ret; 
0x0000000000001d11: neg byte ptr [rbx + 0x48]; mov eax, esi; ret; 
0x000000000001f21b: neg eax; mov dword ptr [rcx], eax; or rax, 0xffffffffffffffff; ret; 
0x000000000001f098: neg eax; mov dword ptr [rip + 0x100a0], eax; mov rax, -1; ret; 
0x000000000001f070: neg eax; mov dword ptr [rip + 0x100c8], eax; mov rax, -1; ret; 
0x000000000001f038: neg eax; mov dword ptr [rip + 0x10100], eax; mov rax, -1; ret; 
0x000000000001f008: neg eax; mov dword ptr [rip + 0x10130], eax; mov eax, 0xffffffff; ret; 
0x000000000001efa0: neg eax; mov dword ptr [rip + 0x10198], eax; mov eax, 0xffffffff; ret; 
0x000000000001ef08: neg eax; mov dword ptr [rip + 0x10230], eax; mov eax, 0xffffffff; ret; 
0x000000000001eea8: neg eax; mov dword ptr [rip + 0x10290], eax; mov eax, 0xffffffff; ret; 
0x000000000001ee38: neg eax; mov dword ptr [rip + 0x10300], eax; mov eax, 0xffffffff; ret; 
0x000000000001ee08: neg eax; mov dword ptr [rip + 0x10330], eax; mov eax, 0xffffffff; ret; 
0x000000000001edd8: neg eax; mov dword ptr [rip + 0x10360], eax; mov rax, -1; ret; 
0x000000000001ed98: neg eax; mov dword ptr [rip + 0x103a0], eax; mov eax, 0xffffffff; ret; 
0x000000000001ed48: neg eax; mov dword ptr [rip + 0x103f0], eax; mov eax, 0xffffffff; ret; 
0x000000000001ecf8: neg eax; mov dword ptr [rip + 0x10440], eax; mov eax, 0xffffffff; ret; 
0x000000000001eb08: neg eax; mov dword ptr [rip + 0x10630], eax; mov rax, -1; ret; 
0x000000000001e7a0: neg eax; mov dword ptr [rip + 0x10998], eax; mov eax, 0xffffffff; ret; 
0x000000000001e4e0: neg eax; mov dword ptr [rip + 0x10c58], eax; mov eax, 0xffffffff; ret; 
0x000000000001df73: neg eax; mov dword ptr [rip + 0x111c5], eax; xor eax, eax; ret; 
0x000000000001f568: neg eax; mov r9d, 0xffffffff; mov dword ptr [rip + 0xfbca], eax; mov eax, r9d; add rsp, 0xd0; ret; 
0x00000000000195e3: neg eax; ret; 
0x0000000000012da5: neg eax; test cl, cl; cmove r8, rax; mov rax, r8; ret; 
0x0000000000012da4: neg rax; test cl, cl; cmove r8, rax; mov rax, r8; ret; 
0x000000000001d5ab: nop dword ptr [rax + rax]; add rsp, 8; xor eax, eax; pop rbx; pop rbp; ret; 
0x0000000000022568: nop dword ptr [rax + rax]; bsf eax, eax; lea rax, [rax + rdi + 0x10]; ret; 
0x0000000000001148: nop dword ptr [rax + rax]; endbr64; add dword ptr [rdi + 4], 1; ret; 
0x000000000001adfb: nop dword ptr [rax + rax]; endbr64; lea rax, [rip + 0x1287d]; ret; 
0x000000000001ede8: nop dword ptr [rax + rax]; endbr64; mov eax, 0x15; syscall; 
0x000000000001f2db: nop dword ptr [rax + rax]; endbr64; mov eax, 0x27; syscall; 
0x000000000001f2db: nop dword ptr [rax + rax]; endbr64; mov eax, 0x27; syscall; ret; 
0x000000000001ee18: nop dword ptr [rax + rax]; endbr64; mov eax, 3; syscall; 
0x00000000000121d8: nop dword ptr [rax + rax]; endbr64; ret; 
0x000000000001f018: nop dword ptr [rax + rax]; endbr64; xor eax, eax; syscall; 
0x000000000001d718: nop dword ptr [rax + rax]; lea rax, [rip + 0x8977]; ret; 
0x000000000001d6e8: nop dword ptr [rax + rax]; lea rax, [rip + 0x89be]; ret; 
0x000000000001d728: nop dword ptr [rax + rax]; lea rax, [rip + 0x89d5]; ret; 
0x000000000001d6f8: nop dword ptr [rax + rax]; lea rax, [rip + 0x89e0]; ret; 
0x000000000001d708: nop dword ptr [rax + rax]; lea rax, [rip + 0x89e3]; ret; 
0x000000000001d6d8: nop dword ptr [rax + rax]; lea rax, [rip + 0x89e8]; ret; 
0x000000000001ee8b: nop dword ptr [rax + rax]; lea rdx, [rsp - 0x50]; mov esi, 0x10; mov eax, 0x48; syscall; 
0x000000000001eda8: nop dword ptr [rax + rax]; mov dword ptr [rip + 0x10386], 0x16; mov eax, 0xffffffff; ret; 
0x000000000001ed58: nop dword ptr [rax + rax]; mov dword ptr [rip + 0x103d6], 0x16; mov eax, 0xffffffff; ret; 
0x000000000001ed08: nop dword ptr [rax + rax]; mov dword ptr [rip + 0x10426], 0x16; mov eax, 0xffffffff; ret; 
0x000000000001f2a3: nop dword ptr [rax + rax]; mov edi, edx; mov eax, esi; syscall; 
0x000000000001a023: nop dword ptr [rax + rax]; mov qword ptr [rax + 0x20], rsi; ret; 
0x000000000000229b: nop dword ptr [rax + rax]; mov qword ptr [rbp - 0x60], rsi; mov qword ptr [rbp - 0x58], rdx; mov qword ptr [rbp - 0x50], rcx; mov qword ptr [rbp - 0x48], rdi; call rax; 
0x0000000000019fb8: nop dword ptr [rax + rax]; mov qword ptr [rdi + 0x20], rsi; ret; 
0x0000000000011b8b: nop dword ptr [rax + rax]; mov rdx, r13; mov rsi, r12; mov edi, ebp; call qword ptr [rbx]; 
0x000000000001f003: nop dword ptr [rax + rax]; neg eax; mov dword ptr [rip + 0x10130], eax; mov eax, 0xffffffff; ret; 
0x000000000001ef9b: nop dword ptr [rax + rax]; neg eax; mov dword ptr [rip + 0x10198], eax; mov eax, 0xffffffff; ret; 
0x000000000001ed93: nop dword ptr [rax + rax]; neg eax; mov dword ptr [rip + 0x103a0], eax; mov eax, 0xffffffff; ret; 
0x000000000001ed43: nop dword ptr [rax + rax]; neg eax; mov dword ptr [rip + 0x103f0], eax; mov eax, 0xffffffff; ret; 
0x000000000001ecf3: nop dword ptr [rax + rax]; neg eax; mov dword ptr [rip + 0x10440], eax; mov eax, 0xffffffff; ret; 
0x000000000001f3d4: nop dword ptr [rax + rax]; nop dword ptr [rax]; mov rax, 0xf; syscall; 
0x000000000000f4d3: nop dword ptr [rax + rax]; ret; 
0x00000000000068c3: nop dword ptr [rax + rax]; xor eax, eax; ret; 
0x0000000000011ce5: nop dword ptr [rax]; add rbx, 8; mov rdx, r13; mov rsi, r12; mov edi, ebp; call qword ptr [rax]; 
0x000000000001d83d: nop dword ptr [rax]; add rsp, 8; mov rax, rbp; pop rbx; pop rbp; ret; 
0x0000000000012bec: nop dword ptr [rax]; add rsp, 8; xor eax, eax; pop rbx; pop rbp; ret; 
0x0000000000022559: nop dword ptr [rax]; bsf eax, eax; add rax, rdi; ret; 
0x0000000000022579: nop dword ptr [rax]; bsf eax, eax; lea rax, [rax + rdi + 0x20]; ret; 
0x000000000002254c: nop dword ptr [rax]; bsf eax, eax; lea rax, [rax + rdi - 0x10]; ret; 
0x000000000002259c: nop dword ptr [rax]; bsf eax, eax; sub rdx, rax; jbe 0x225d0; lea rax, [rdi + rax + 0x10]; ret; 
0x0000000000016949: nop dword ptr [rax]; call qword ptr [rbx]; 
0x00000000000111f4: nop dword ptr [rax]; call rax; 
0x00000000000068f4: nop dword ptr [rax]; cmp byte ptr [r8 + 8], 0x2f; jne 0x68bf; leave; mov eax, 1; ret; 
0x0000000000014401: nop dword ptr [rax]; cmp rax, r8; ja 0x14418; add rsp, 8; ret; 
0x000000000001d63c: nop dword ptr [rax]; endbr64; mov dword ptr [rdi + 0x40], 0; xor eax, eax; ret; 
0x000000000001f1f9: nop dword ptr [rax]; endbr64; mov eax, 0xb; syscall; 
0x000000000001df3c: nop dword ptr [rax]; endbr64; mov eax, 0xc; syscall; 
0x000000000001abdd: nop dword ptr [rax]; endbr64; mov rax, qword ptr [rax + 8]; ret; 
0x000000000001abe9: nop dword ptr [rax]; endbr64; mov rax, qword ptr [rax + 8]; sub rax, qword ptr fs:[0]; ret; 
0x000000000001ab1d: nop dword ptr [rax]; endbr64; mov rax, qword ptr [rdi]; cmp rax, rsi; je 0x1ab30; ret; 
0x0000000000001159: nop dword ptr [rax]; endbr64; sub dword ptr [rdi + 4], 1; ret; 
0x0000000000022fbc: nop dword ptr [rax]; endbr64; test rsi, rsi; jne 0x22fcd; xor rax, rax; ret; 
0x000000000001f5a9: nop dword ptr [rax]; mov dword ptr [rip + 0xfb86], 0x16; mov eax, 0xffffffff; ret; 
0x000000000001f191: nop dword ptr [rax]; mov dword ptr [rip + 0xff9e], 0x16; mov rax, -1; ret; 
0x000000000001f3dc: nop dword ptr [rax]; mov rax, 0xf; syscall; 
0x0000000000020a3d: nop dword ptr [rax]; movzx ecx, byte ptr [rsi]; movzx eax, byte ptr [rdi]; sub eax, ecx; ret; 
0x000000000001f094: nop dword ptr [rax]; neg eax; mov dword ptr [rip + 0x100a0], eax; mov rax, -1; ret; 
0x000000000001f031: nop dword ptr [rax]; neg eax; mov dword ptr [rip + 0x10100], eax; mov rax, -1; ret; 
0x000000000001ee34: nop dword ptr [rax]; neg eax; mov dword ptr [rip + 0x10300], eax; mov eax, 0xffffffff; ret; 
0x000000000001ee04: nop dword ptr [rax]; neg eax; mov dword ptr [rip + 0x10330], eax; mov eax, 0xffffffff; ret; 
0x000000000001edd4: nop dword ptr [rax]; neg eax; mov dword ptr [rip + 0x10360], eax; mov rax, -1; ret; 
0x000000000001eb04: nop dword ptr [rax]; neg eax; mov dword ptr [rip + 0x10630], eax; mov rax, -1; ret; 
0x000000000000d825: nop dword ptr [rax]; or byte ptr [rbp + 0x31d], 4; pop rbp; ret; 
0x0000000000016979: nop dword ptr [rax]; pop rbx; pop rbp; pop r12; ret; 
0x000000000001404d: nop dword ptr [rax]; ret; 
0x000000000001eb91: nop dword ptr [rax]; xor eax, eax; ret; 
0x000000000001ee17: nop dword ptr cs:[rax + rax]; endbr64; mov eax, 3; syscall; 
0x00000000000121d7: nop dword ptr cs:[rax + rax]; endbr64; ret; 
0x000000000001f017: nop dword ptr cs:[rax + rax]; endbr64; xor eax, eax; syscall; 
0x000000000001d6d7: nop dword ptr cs:[rax + rax]; lea rax, [rip + 0x89e8]; ret; 
0x000000000001eda7: nop dword ptr cs:[rax + rax]; mov dword ptr [rip + 0x10386], 0x16; mov eax, 0xffffffff; ret; 
0x000000000001ed57: nop dword ptr cs:[rax + rax]; mov dword ptr [rip + 0x103d6], 0x16; mov eax, 0xffffffff; ret; 
0x000000000001ed07: nop dword ptr cs:[rax + rax]; mov dword ptr [rip + 0x10426], 0x16; mov eax, 0xffffffff; ret; 
0x000000000001f3d3: nop dword ptr cs:[rax + rax]; nop dword ptr [rax]; mov rax, 0xf; syscall; 
0x0000000000012277: nop dword ptr cs:[rax + rax]; ret; 
0x000000000001d5aa: nop word ptr [rax + rax]; add rsp, 8; xor eax, eax; pop rbx; pop rbp; ret; 
0x0000000000022567: nop word ptr [rax + rax]; bsf eax, eax; lea rax, [rax + rdi + 0x10]; ret; 
0x0000000000001147: nop word ptr [rax + rax]; endbr64; add dword ptr [rdi + 4], 1; ret; 
0x000000000001f2da: nop word ptr [rax + rax]; endbr64; mov eax, 0x27; syscall; 
0x000000000001f2da: nop word ptr [rax + rax]; endbr64; mov eax, 0x27; syscall; ret; 
0x000000000001d017: nop word ptr [rax + rax]; endbr64; ret; 
0x000000000001ee8a: nop word ptr [rax + rax]; lea rdx, [rsp - 0x50]; mov esi, 0x10; mov eax, 0x48; syscall; 
0x000000000000229a: nop word ptr [rax + rax]; mov qword ptr [rbp - 0x60], rsi; mov qword ptr [rbp - 0x58], rdx; mov qword ptr [rbp - 0x50], rcx; mov qword ptr [rbp - 0x48], rdi; call rax; 
0x0000000000019fb7: nop word ptr [rax + rax]; mov qword ptr [rdi + 0x20], rsi; ret; 
0x0000000000011b8a: nop word ptr [rax + rax]; mov rdx, r13; mov rsi, r12; mov edi, ebp; call qword ptr [rbx]; 
0x000000000001ed42: nop word ptr [rax + rax]; neg eax; mov dword ptr [rip + 0x103f0], eax; mov eax, 0xffffffff; ret; 
0x000000000000f4d2: nop word ptr [rax + rax]; ret; 
0x000000000001ee16: nop word ptr cs:[rax + rax]; endbr64; mov eax, 3; syscall; 
0x00000000000121d6: nop word ptr cs:[rax + rax]; endbr64; ret; 
0x000000000001f016: nop word ptr cs:[rax + rax]; endbr64; xor eax, eax; syscall; 
0x000000000001d6d6: nop word ptr cs:[rax + rax]; lea rax, [rip + 0x89e8]; ret; 
0x000000000001eda6: nop word ptr cs:[rax + rax]; mov dword ptr [rip + 0x10386], 0x16; mov eax, 0xffffffff; ret; 
0x000000000001ed56: nop word ptr cs:[rax + rax]; mov dword ptr [rip + 0x103d6], 0x16; mov eax, 0xffffffff; ret; 
0x000000000001ed06: nop word ptr cs:[rax + rax]; mov dword ptr [rip + 0x10426], 0x16; mov eax, 0xffffffff; ret; 
0x000000000001f3d2: nop word ptr cs:[rax + rax]; nop dword ptr [rax]; mov rax, 0xf; syscall; 
0x0000000000012276: nop word ptr cs:[rax + rax]; ret; 
0x000000000001eeac: nop; add al, byte ptr [rcx]; add byte ptr [rax - 1], bh; ret; 
0x0000000000004c09: nop; add eax, dword ptr [rax]; add byte ptr [rax - 0x77], cl; ret; 
0x000000000000452e: nop; add eax, dword ptr [rax]; add byte ptr [rdi], cl; xchg eax, ebp; ret 0xb6e8; 
0x00000000000225af: nop; bsf eax, eax; sub rdx, rax; jbe 0x225d0; lea rax, [rdi + rax + 0x20]; ret; 
0x00000000000225bf: nop; bsf eax, eax; sub rdx, rax; jbe 0x225d0; lea rax, [rdi + rax + 0x30]; ret; 
0x000000000001eecf: nop; endbr64; cmp esi, 9; je 0x1eef0; mov eax, 0x48; syscall; 
0x000000000002365f: nop; endbr64; mov eax, 0x26; syscall; 
0x000000000001f25f: nop; endbr64; mov eax, 0x3f; syscall; 
0x000000000001f22f: nop; endbr64; mov eax, 0xa; syscall; 
0x000000000000d74f: nop; endbr64; mov eax, 0xffffffff; pop rbp; ret; 
0x0000000000016c41: nop; in al, dx; add eax, dword ptr [rax]; add byte ptr [rax - 0x7d], cl; ror dword ptr [rax], 0x83; ret 0x4801; 
0x000000000001f3cb: nop; jmp rdx; 
0x000000000000d135: nop; mov dword ptr [rdi + 0x2f4], edx; mov qword ptr [rdi + 0x308], rax; ret; 
0x000000000000d103: nop; mov dword ptr [rdi + 0x2fc], ecx; mov qword ptr [rdi + 0x310], rax; ret; 
0x000000000001e7af: nop; mov dword ptr [rip + 0x10986], 0x16; mov eax, 0xffffffff; ret; 
0x000000000001df7f: nop; mov dword ptr [rip + 0x111b6], 0xc; mov eax, 0xffffffff; ret; 
0x000000000001f3d0: nop; nop word ptr cs:[rax + rax]; nop dword ptr [rax]; mov rax, 0xf; syscall; 
0x000000000001f3cf: nop; nop; nop word ptr cs:[rax + rax]; nop dword ptr [rax]; mov rax, 0xf; syscall; 
0x000000000000836f: nop; ret; 
0x00000000000225cf: nop; xor eax, eax; ret; 
0x0000000000014892: or ah, byte ptr [rdi - 0x7cb7ffff]; ret; 
0x000000000001df86: or al, 0; add byte ptr [rax], al; mov eax, 0xffffffff; ret; 
0x000000000001f145: or al, 0; add byte ptr [rax], al; pop rbp; pop r12; ret; 
0x000000000001df45: or al, 0; add byte ptr [rax], al; syscall; 
0x0000000000020a26: or al, 0x16; movzx eax, byte ptr [rdi + rdx]; sub eax, ecx; ret; 
0x000000000001ecaa: or al, 0x24; call 0x23660; add rsp, 0xc8; ret; 
0x000000000001ebdd: or al, 0x48; mov edx, dword ptr [rip + 0x1054b]; add word ptr [rdx + rax*2], 1; ret; 
0x0000000000014373: or al, 0x49; lea eax, [rax + 1]; mov qword ptr [rip + 0x1ac21], rax; ret; 
0x0000000000005687: or al, 0x85; sal byte ptr [rax + rsi + 0x48], 1; ret; 
0x00000000000133a1: or al, 0x85; sal byte ptr [rdx + rbp + 0x48], 1; ret 0xb70f; 
0x000000000001305d: or al, 0x85; sal byte ptr [rsi + rsi + 0x48], 1; ret; 
0x000000000001e4e5: or al, 1; add byte ptr [rax - 1], bh; ret; 
0x000000000000caa8: or al, 2; add byte ptr [rax - 0x7b], cl; ror byte ptr [rdi], 0x94; ret 0x3948; 
0x000000000001f235: or al, byte ptr [rax]; add byte ptr [rax], al; syscall; 
0x000000000001f235: or al, byte ptr [rax]; add byte ptr [rax], al; syscall; cmp rax, -0xfff; jae 0x1f244; ret; 
0x000000000001a537: or al, byte ptr [rcx + rcx*8 + 0x1f0f1574]; add byte ptr [rax - 0x7d], cl; ret 0x8801; 
0x0000000000014f23: or al, byte ptr [rcx]; add byte ptr [rax + 0x59], bh; mov rbp, rsp; mov rsi, rbp; syscall; 
0x0000000000018ab1: or al, ch; or dword ptr [rsi - 0x76b60001], eax; ret; 
0x00000000000166c7: or al, ch; ret; 
0x0000000000018b78: or al, ch; test edi, edi; dec dword ptr [rcx - 0x77]; ret; 
0x0000000000011ac8: or bh, bh; je 0x11af0; adc byte ptr [rcx + rcx*4 + 0x4c], cl; and al, 0x10; call rax; 
0x0000000000014cd9: or byte ptr [r13 + 0x48], r11b; add eax, edx; ret; 
0x00000000000011b0: or byte ptr [r8 + 0x5a], bl; pop rbx; ret; 
0x000000000001ac47: or byte ptr [r8 - 0x75], r9b; je 0x1ac71; lock sub rax, qword ptr fs:[0]; mov rdi, qword ptr [rsp - 8]; ret; 
0x0000000000014e51: or byte ptr [r8 - 0x77], cl; ret 0x8548; 
0x0000000000006cf2: or byte ptr [r8 - 0x7b], cl; sal byte ptr [rdi + 0x48], 0x89; ret; 
0x0000000000014dfd: or byte ptr [r8 - 0x7b], cl; sal byte ptr [rsp + rdi + 0x48], 0x89; ret; 
0x000000000000c92c: or byte ptr [rax + 0x39], cl; ret 0x4674; 
0x00000000000011b1: or byte ptr [rax + 0x5a], bl; pop rbx; ret; 
0x0000000000016a10: or byte ptr [rax + 1], bh; pop rbx; pop rbp; ret; 
0x000000000001110e: or byte ptr [rax + 1], cl; ret; 
0x000000000001abf7: or byte ptr [rax + rcx*2 + 0x2b], ah; add al, 0x25; add byte ptr [rax], al; add byte ptr [rax], al; ret; 
0x000000000001abf6: or byte ptr [rax + rcx*2 + 0x2b], spl; add al, 0x25; add byte ptr [rax], al; add byte ptr [rax], al; ret; 
0x000000000001b34e: or byte ptr [rax - 0x39], cl; ret 0xffff; 
0x000000000001c94b: or byte ptr [rax - 0x75], cl; adc byte ptr [rax - 0x7d], cl; ret 0x4110; 
0x000000000001ca53: or byte ptr [rax - 0x75], cl; adc byte ptr [rax - 0x7d], cl; ret 0x4810; 
0x000000000001c9eb: or byte ptr [rax - 0x75], cl; adc byte ptr [rax - 0x7d], cl; ret 0xbb10; 
0x000000000001ac48: or byte ptr [rax - 0x75], cl; je 0x1ac71; lock sub rax, qword ptr fs:[0]; mov rdi, qword ptr [rsp - 8]; ret; 
0x0000000000019f73: or byte ptr [rax - 0x75], cl; xor eax, 0x1514d; call 0x1f200; mov qword ptr [rip + 0x1514d], 0; add rsp, 8; ret; 
0x000000000001dd07: or byte ptr [rax - 0x77], cl; add eax, 0x113f9; add rsp, 0x110; mov eax, r12d; pop r12; ret; 
0x000000000001f0ff: or byte ptr [rax - 0x77], cl; add edi, dword ptr [rax + 1]; pop rbx; pop rbp; pop r12; ret; 
0x000000000000163f: or byte ptr [rax - 0x77], cl; ret 0x3948; 
0x0000000000014e52: or byte ptr [rax - 0x77], cl; ret 0x8548; 
0x000000000001a90e: or byte ptr [rax - 0x77], cl; ret; 
0x0000000000006cf3: or byte ptr [rax - 0x7b], cl; sal byte ptr [rdi + 0x48], 0x89; ret; 
0x0000000000014dfe: or byte ptr [rax - 0x7b], cl; sal byte ptr [rsp + rdi + 0x48], 0x89; ret; 
0x0000000000016d4f: or byte ptr [rax - 0x7d], cl; ret 0x4808; 
0x000000000001c8fb: or byte ptr [rax - 0x7d], cl; ret 0xc610; 
0x000000000000f49b: or byte ptr [rax - 0x7d], cl; ret; 
0x000000000001d3f9: or byte ptr [rax - 0x7d], cl; rol byte ptr [rbx], 0x48; mov dword ptr [rdi], edx; ret; 
0x000000000001f494: or byte ptr [rax], al; add byte ptr [rax], al; mov eax, 0xd; syscall; 
0x000000000001edc5: or byte ptr [rax], al; add byte ptr [rax], al; syscall; 
0x000000000001edc5: or byte ptr [rax], al; add byte ptr [rax], al; syscall; cmp rax, -0x1000; ja 0x1edd8; ret; 
0x000000000000d828: or byte ptr [rbp + 0x31d], 4; pop rbp; ret; 
0x000000000000d730: or byte ptr [rbp + 0x31d], 4; xor eax, eax; pop rbp; ret; 
0x0000000000016973: or byte ptr [rbp + 0x41], bl; pop rsp; jmp rax; 
0x000000000001aa43: or byte ptr [rbp + 0x440f4cf6], al; ret 0x8d48; 
0x0000000000014cda: or byte ptr [rbp + 0x48], bl; add eax, edx; ret; 
0x00000000000032b6: or byte ptr [rbp + rcx*4 + 0x1d], cl; movabs byte ptr [0x8b4dda014c0002a2], al; sbb dword ptr [rax + 1], ecx; ret; 
0x00000000000139ca: or byte ptr [rbp + rcx*4 + 0xc], cl; xor byte ptr [rcx + rcx*4 + 0xd], cl; ret 0x1b6; 
0x000000000000c80e: or byte ptr [rbp + rcx*4 + 5], cl; ret; 
0x0000000000012ec6: or byte ptr [rbx + 0x1480858], cl; ret; 
0x0000000000006d0e: or byte ptr [rbx + 0x5d], bl; pop r12; pop r13; ret; 
0x0000000000012be8: or byte ptr [rbx + 0x5d], bl; ret; 
0x000000000000d0fc: or byte ptr [rbx], al; add byte ptr [rax], al; lea rax, [rax + rdx*4]; mov dword ptr [rdi + 0x2fc], ecx; mov qword ptr [rdi + 0x310], rax; ret; 
0x000000000000d13f: or byte ptr [rbx], al; add byte ptr [rax], al; ret; 
0x0000000000011b4e: or byte ptr [rcx + rcx*4 - 0x16], cl; add rax, qword ptr [rbx]; mov rsi, r12; mov edi, ebp; call rax; 
0x0000000000011ceb: or byte ptr [rcx + rcx*4 - 0x16], cl; mov rsi, r12; mov edi, ebp; call qword ptr [rax]; 
0x0000000000015084: or byte ptr [rcx + rcx*4 - 0x20], al; pop rbp; pop r12; ret; 
0x0000000000013585: or byte ptr [rcx + rcx*4 - 0x20], al; pop rbx; pop rbp; pop r12; pop r13; ret; 
0x000000000001dfdc: or byte ptr [rcx + rcx*4 - 0x20], cl; pop rbx; pop r12; ret; 
0x0000000000006709: or byte ptr [rcx + rcx*4 - 0x20], cl; pop rbx; pop rbp; pop r12; pop r13; ret; 
0x0000000000014754: or byte ptr [rcx + rcx*4 - 0x20], cl; pop rbx; pop rbp; pop r12; ret; 
0x0000000000011a2b: or byte ptr [rcx - 0x75], al; jne 0x11a40; push qword ptr [rsp + 8]; call rax; 
0x0000000000003415: or byte ptr [rcx - 0x77], al; xchg eax, ebp; call 0xfffffffff6003421; ret 0x7402; 
0x0000000000003040: or byte ptr [rcx - 0x77], al; xchg eax, edi; call 0xfffffffff600304c; ret 0x7402; 
0x0000000000007864: or byte ptr [rcx - 0x77], al; xchg eax, esp; and al, 0xe8; add eax, dword ptr [rax]; add dh, dh; ret 0x7402; 
0x0000000000007871: or byte ptr [rcx - 0x77], cl; test byte ptr [rax + rax*8], ah; add byte ptr [rax], al; add dh, dh; ret 0x7404; 
0x0000000000010558: or byte ptr [rcx - 0x7d], cl; ret 0x4808; 
0x00000000000105ab: or byte ptr [rcx - 0x7d], cl; ret 0x4d08; 
0x000000000001ce8f: or byte ptr [rcx], al; add byte ptr [rax - 0x377c011c], al; sbb byte ptr [rcx + 0x1084e05], cl; add cl, ch; ret; 
0x000000000001ce9b: or byte ptr [rcx], al; add cl, ch; ret; 
0x000000000001ce9a: or byte ptr [rcx], r8b; add cl, ch; ret; 
0x00000000000068fb: or byte ptr [rdi], ch; jne 0x68bf; leave; mov eax, 1; ret; 
0x000000000000e66d: or byte ptr [rip - 0x7cb7208c], ah; ret; 
0x000000000001768f: or byte ptr [rsi], cl; add byte ptr [rax], al; call rax; 
0x0000000000017d56: or byte ptr [rsi], cl; add byte ptr [rax], al; call rcx; 
0x00000000000051ba: or byte ptr [rsi], cl; add byte ptr [rax], al; call rdx; 
0x0000000000012116: or byte ptr [rsi], cl; add byte ptr [rax], al; call rsi; 
0x000000000001673e: or byte ptr [rsi], cl; add byte ptr [rax], al; xor esi, esi; call rdx; 
0x000000000001ebd4: or cl, byte ptr [rax + 0x3b]; add eax, 0x1054c; jae 0x1ebea; mov rdx, qword ptr [rip + 0x1054b]; add word ptr [rdx + rax*2], 1; ret; 
0x0000000000002544: or cl, byte ptr [rax - 0x7d]; ret 0x8d04; 
0x0000000000002293: or cl, byte ptr [rdi]; test dword ptr [rdi + rdi*8 - 1], eax; jmp qword ptr [rsi + 0xf]; 
0x0000000000014cd6: or dword ptr [rax - 0x75], ecx; or byte ptr [r13 + 0x48], r11b; add eax, edx; ret; 
0x00000000000232be: or dword ptr [rax - 1], ecx; ret 0xc148; 
0x000000000001f180: or dword ptr [rax], eax; add byte ptr [rax], al; syscall; 
0x000000000001f1c2: or dword ptr [rax], eax; add byte ptr [rax], al; xor edi, edi; or r10d, 0x40; mov eax, ecx; syscall; 
0x000000000001b678: or dword ptr [rcx + rax - 0x28], 0x3e; jmp rax; 
0x000000000001a85d: or dword ptr [rcx + rcx*4 - 1], ecx; call rax; 
0x000000000001cd85: or dword ptr [rcx], eax; add bh, dh; ret 0; 
0x000000000001e7a5: or dword ptr [rcx], eax; add byte ptr [rax - 1], bh; ret; 
0x000000000001e7b3: or dword ptr [rcx], eax; add byte ptr [rsi], dl; add byte ptr [rax], al; add byte ptr [rax - 1], bh; ret; 
0x000000000001516f: or dword ptr [rip + 0x19e22], 1; ret; 
0x0000000000019657: or dword ptr [rsi - 0x1a], esi; cmp ecx, r8d; je 0x195aa; mov eax, ecx; sub eax, r8d; ret; 
0x0000000000018ab3: or dword ptr [rsi - 0x76b60001], eax; ret; 
0x000000000001c31f: or eax, 0x10; mov dword ptr [rip + 0x12c54], eax; ret; 
0x000000000001d606: or eax, 0x11add; cmp rcx, rdi; je 0x1d618; ret; 
0x000000000001d4f0: or eax, 0x11c03; add rsp, 8; pop rbx; pop rbp; ret; 
0x0000000000017cbd: or eax, 0x1639e; xor esi, esi; add r12d, 1; shl rax, 4; lea rdi, [rcx + rax + 0xe08]; call rdx; 
0x000000000001c347: or eax, 0x18; mov dword ptr [rip + 0x12c2c], eax; ret; 
0x0000000000012106: or eax, 0x1bf55; mov dword ptr [rbp - 0x38], edx; shl rax, 4; lea rdi, [rcx + rax + 0xe08]; call rsi; 
0x00000000000230c5: or eax, 0x48fad348; test edx, edx; je 0x230f0; bsf rax, rdx; ret; 
0x0000000000012b7f: or eax, 0x48fffff7; add esp, 0xd8; ret; 
0x0000000000023676: or eax, 0xbac5; neg eax; mov dword ptr [rcx], eax; or rax, 0xffffffffffffffff; ret; 
0x000000000001bf42: or eax, 0xe9000000; cmc; idiv bh; jmp qword ptr [rsi - 0x7f]; 
0x000000000001f276: or eax, 0xfec5; neg eax; mov dword ptr [rcx], eax; or rax, 0xffffffffffffffff; ret; 
0x000000000001f246: or eax, 0xfef5; neg eax; mov dword ptr [rcx], eax; or rax, 0xffffffffffffffff; ret; 
0x000000000001f216: or eax, 0xff25; neg eax; mov dword ptr [rcx], eax; or rax, 0xffffffffffffffff; ret; 
0x0000000000012238: or eax, 0xffffffa3; mov qword ptr [rax + 0x10], rcx; mov qword ptr [rax + 8], rdx; ret; 
0x000000000001f220: or eax, 0xffffffff; ret; 
0x000000000001c25f: or eax, 1; mov dword ptr [rip + 0x12d14], eax; ret; 
0x000000000001c28f: or eax, 2; mov dword ptr [rip + 0x12ce4], eax; ret; 
0x000000000001b0d2: or eax, 2; test dl, dl; cmove esi, eax; mov eax, 0x9e; syscall; 
0x000000000001c2b7: or eax, 3; mov dword ptr [rip + 0x12cbc], eax; ret; 
0x000000000001c2ef: or eax, 8; mov dword ptr [rip + 0x12c84], eax; ret; 
0x000000000001f205: or eax, dword ptr [rax]; add byte ptr [rax], al; syscall; 
0x000000000001f205: or eax, dword ptr [rax]; add byte ptr [rax], al; syscall; cmp rax, -0xfff; jae 0x1f214; ret; 
0x000000000000f5e5: or eax, dword ptr [rax]; add byte ptr [rbp + 0x1bf0142], cl; add byte ptr [rax], al; add byte ptr [rcx - 0x4db7b], cl; jmp qword ptr [rsi + 0x2e]; 
0x0000000000014119: or edi, 0xfffffffe; dec dword ptr [rax - 0x77]; ret; 
0x000000000001f1c9: or edx, 0x40; mov eax, ecx; syscall; 
0x0000000000022faf: or edx, ecx; bsf rdx, rdx; add rax, rdx; sub rax, rdi; ret; 
0x0000000000023170: or edx, ecx; bts rdx, r11; bsf rdx, rdx; add rax, rdx; sub rax, rdi; ret; 
0x00000000000235a7: or esi, ebx; movq qword ptr [rdi + rdx - 0x10], mm0; movdqu xmmword ptr [rdi], xmm0; ret; 
0x000000000001f1c8: or r10d, 0x40; mov eax, ecx; syscall; 
0x000000000001f21f: or rax, 0xffffffffffffffff; ret; 
0x0000000000022fae: or rdx, rcx; bsf rdx, rdx; add rax, rdx; sub rax, rdi; ret; 
0x000000000002316f: or rdx, rcx; bts rdx, r11; bsf rdx, rdx; add rax, rdx; sub rax, rdi; ret; 
0x0000000000019659: out 0x44, al; cmp ecx, eax; je 0x195aa; mov eax, ecx; sub eax, r8d; ret; 
0x000000000001abb8: out 0x48, eax; mov eax, dword ptr [rbp + 0x18]; test rax, rax; je 0x1abc8; mov rdi, qword ptr [rbp]; call rax; 
0x0000000000007ae1: out 0x48, eax; shl eax, 4; lea r14, [r12 + rax + 0x480]; mov rdx, r14; call rcx; 
0x000000000001ea3a: out 0x5b, eax; pop rbp; pop r12; ret; 
0x000000000001db67: out 0x5d, eax; pop r12; jmp rax; 
0x0000000000011cf1: out 0x89, al; out dx, eax; call qword ptr [rax]; 
0x0000000000011b95: out 0x89, al; out dx, eax; call qword ptr [rbx]; 
0x0000000000011b57: out 0x89, al; out dx, eax; call rax; 
0x0000000000007cfd: out 0x89, eax; fdivr dword ptr [rsi + 1]; add ebx, 1; shl rax, 4; lea rdi, [r14 + rax + 0xe08]; call rdx; 
0x000000000001971c: out 0xe8, eax; ficomp word ptr [rsi]; add byte ptr [rax - 0x39], cl; ret 0xffff; 
0x0000000000005ee0: out 4, al; lea rdx, [r13 + r14 + 8]; call rcx; 
0x0000000000014f30: out dx, al; syscall; 
0x0000000000009d69: out dx, eax; add ah, byte ptr [rsi + 0xf]; jo 0x9d30; add byte ptr [rax - 0x77], cl; ret 0x8348; 
0x000000000000cd0e: out dx, eax; add dword ptr [rax], eax; add byte ptr [rax - 0x73], cl; cmp eax, 0x21c4f; call rdx; 
0x000000000001ea99: out dx, eax; call 0x1e670; add rsp, 0x98; pop rbp; pop r12; ret; 
0x0000000000011cf3: out dx, eax; call qword ptr [rax]; 
0x0000000000011b97: out dx, eax; call qword ptr [rbx]; 
0x000000000000d71d: out dx, eax; call qword ptr [rip + 0x218bc]; xor eax, eax; pop rbp; ret; 
0x0000000000011b59: out dx, eax; call rax; 
0x000000000001f17e: out dx, eax; mov eax, 9; syscall; 
0x000000000001dbf0: out dx, eax; pop rbp; pop r12; jmp rax; 
0x000000000001421c: outsb dx, byte ptr [rsi]; ret; 
0x000000000000bc25: outsb dx, byte ptr [rsi]; ror dword ptr [rax - 0x75], cl; jl 0xbc4f; xor byte ptr [rsi + 0xf], ah; insb byte ptr [rdi], dx; ret 0x290f; 
0x0000000000018d9b: outsb dx, byte ptr [rsi]; shl byte ptr [rsi + 0xf], 1; insb byte ptr [rdi], dx; ret 0xf41; 
0x0000000000018d96: outsb dx, byte ptr [rsi]; shl dword ptr [rsi + 0x48], 0xf; outsb dx, byte ptr [rsi]; shl byte ptr [rsi + 0xf], 1; insb byte ptr [rdi], dx; ret 0xf41; 
0x0000000000023562: outsd dx, dword ptr [rsi]; adc byte ptr [rdi], cl; adc dword ptr [rdi + 0x20], esi; movups xmmword ptr [rdi + 0x30], xmm7; movups xmmword ptr [r11], xmm8; ret; 
0x0000000000001165: outsd dx, dword ptr [rsi]; add al, 1; ret; 
0x000000000001eca4: outsd dx, dword ptr [rsi]; and al, 0x10; movaps xmmword ptr [rsp], xmm1; call 0x23660; add rsp, 0xc8; ret; 
0x000000000001f7e8: outsd dx, dword ptr [rsi]; fmul qword ptr [rcx - 0x7d]; ret 0x7f10; 
0x000000000001f82e: outsd dx, dword ptr [rsi]; fsub st(1), st(0); imul edi, edi, -1; jmp qword ptr [rsi + 0x66]; 
0x000000000001d6d0: outsd dx, dword ptr [rsi]; mov word ptr [rax + 4], dx; ret; 
0x000000000000385f: outsd dx, dword ptr [rsi]; pop rbx; and byte ptr [rax - 0x7d], cl; ret; 
0x000000000001393a: outsd dx, dword ptr [rsi]; xchg eax, ebp; cmp ch, 0xff; jmp qword ptr [rsi + 0xf]; 
0x000000000002253d: pcmpeqb mm1, qword ptr [rdi + 0x10]; pmovmskb eax, xmm1; test eax, eax; jne 0x225a0; xor eax, eax; ret; 
0x0000000000022e4f: pcmpeqb mm4, mm0; pmovmskb edx, xmm4; test edx, edx; je 0x22e5e; bsf eax, edx; ret; 
0x000000000002253c: pcmpeqb xmm1, xmmword ptr [rdi + 0x10]; pmovmskb eax, xmm1; test eax, eax; jne 0x225a0; xor eax, eax; ret; 
0x0000000000022e4e: pcmpeqb xmm4, xmm0; pmovmskb edx, xmm4; test edx, edx; je 0x22e5e; bsf eax, edx; ret; 
0x00000000000224ac: pmovmskb eax, mm1; bsf eax, eax; lea rax, [rdi + rax + 0x30]; ret; 
0x0000000000022542: pmovmskb eax, mm1; test eax, eax; jne 0x225a0; xor eax, eax; ret; 
0x0000000000022512: pmovmskb eax, mm1; test eax, eax; jne 0x225c0; xor eax, eax; ret; 
0x00000000000224ab: pmovmskb eax, xmm1; bsf eax, eax; lea rax, [rdi + rax + 0x30]; ret; 
0x0000000000022541: pmovmskb eax, xmm1; test eax, eax; jne 0x225a0; xor eax, eax; ret; 
0x0000000000022511: pmovmskb eax, xmm1; test eax, eax; jne 0x225c0; xor eax, eax; ret; 
0x0000000000022e53: pmovmskb edx, mm4; test edx, edx; je 0x22e5e; bsf eax, edx; ret; 
0x0000000000022e52: pmovmskb edx, xmm4; test edx, edx; je 0x22e5e; bsf eax, edx; ret; 
0x00000000000121cd: pop r11; add dword ptr [rax], eax; call 0x1d790; nop word ptr cs:[rax + rax]; endbr64; ret; 
0x0000000000016975: pop r12; jmp rax; 
0x0000000000014606: pop r12; pop r13; movups xmmword ptr [rip + 0x1a9a7], xmm0; pop r14; ret; 
0x0000000000001880: pop r12; pop r13; pop r14; pop r15; pop rbp; ret; 
0x0000000000002511: pop r12; pop r13; pop r14; pop r15; ret; 
0x00000000000097c3: pop r12; pop r13; pop r14; ret; 
0x000000000000670f: pop r12; pop r13; ret; 
0x0000000000001439: pop r12; ret; 
0x000000000001d359: pop r12; shl eax, cl; ret; 
0x0000000000014608: pop r13; movups xmmword ptr [rip + 0x1a9a7], xmm0; pop r14; ret; 
0x0000000000001882: pop r13; pop r14; pop r15; pop rbp; ret; 
0x0000000000002513: pop r13; pop r14; pop r15; ret; 
0x00000000000097c5: pop r13; pop r14; ret; 
0x0000000000006711: pop r13; ret; 
0x0000000000001884: pop r14; pop r15; pop rbp; ret; 
0x0000000000002515: pop r14; pop r15; ret; 
0x00000000000097c7: pop r14; ret; 
0x0000000000001886: pop r15; pop rbp; ret; 
0x0000000000002517: pop r15; ret; 
0x000000000001f34a: pop r8; xor eax, eax; ret; 
0x000000000001ad20: pop rax; jmp qword ptr [rax]; 
0x000000000001f538: pop rax; movups xmmword ptr [r8 + 0x68], xmm6; movups xmmword ptr [r8 + 0x78], xmm7; mov eax, r9d; add rsp, 0xd0; ret; 
0x000000000001e4e4: pop rax; or al, 1; add byte ptr [rax - 1], bh; ret; 
0x0000000000012ec8: pop rax; or byte ptr [rax + 1], cl; ret; 
0x00000000000011b2: pop rax; pop rdx; pop rbx; ret; 
0x000000000001f34b: pop rax; xor eax, eax; ret; 
0x0000000000014cdb: pop rbp; add rax, rdx; ret; 
0x0000000000017aed: pop rbp; mov eax, 0x72d43941; ret; 
0x0000000000014774: pop rbp; mov rax, r12; pop r12; ret; 
0x0000000000014609: pop rbp; movups xmmword ptr [rip + 0x1a9a7], xmm0; pop r14; ret; 
0x0000000000016974: pop rbp; pop r12; jmp rax; 
0x0000000000002510: pop rbp; pop r12; pop r13; pop r14; pop r15; ret; 
0x00000000000097c2: pop rbp; pop r12; pop r13; pop r14; ret; 
0x000000000000670e: pop rbp; pop r12; pop r13; ret; 
0x0000000000001438: pop rbp; pop r12; ret; 
0x0000000000001883: pop rbp; pop r14; pop r15; pop rbp; ret; 
0x0000000000002514: pop rbp; pop r14; pop r15; ret; 
0x00000000000097c6: pop rbp; pop r14; ret; 
0x0000000000001888: pop rbp; ret; 
0x000000000001d355: pop rbp; shl ecx, 3; pop r12; shl eax, cl; ret; 
0x00000000000121ce: pop rbx; add dword ptr [rax], eax; call 0x1d790; nop word ptr cs:[rax + rax]; endbr64; ret; 
0x000000000001696f: pop rbx; add rax, qword ptr [rdx + 8]; pop rbp; pop r12; jmp rax; 
0x0000000000003860: pop rbx; and byte ptr [rax - 0x7d], cl; ret; 
0x00000000000135c7: pop rbx; mov eax, r12d; pop rbp; pop r12; pop r13; ret; 
0x0000000000006741: pop rbx; mov rax, r12; pop rbp; pop r12; pop r13; ret; 
0x0000000000001d12: pop rbx; mov rax, rsi; ret; 
0x000000000001516e: pop rbx; or dword ptr [rip + 0x19e22], 1; ret; 
0x000000000001dfe0: pop rbx; pop r12; ret; 
0x0000000000014773: pop rbx; pop rbp; mov rax, r12; pop r12; ret; 
0x000000000000b3ec: pop rbx; pop rbp; pop r12; pop r13; pop r14; ret; 
0x000000000000670d: pop rbx; pop rbp; pop r12; pop r13; ret; 
0x0000000000001437: pop rbx; pop rbp; pop r12; ret; 
0x0000000000012be9: pop rbx; pop rbp; ret; 
0x000000000001d354: pop rbx; pop rbp; shl ecx, 3; pop r12; shl eax, cl; ret; 
0x00000000000011b4: pop rbx; ret; 
0x0000000000014f27: pop rcx; add byte ptr [rax], al; add byte ptr [rax - 0x77], cl; in eax, 0x48; mov esi, ebp; syscall; 
0x00000000000032b5: pop rcx; or byte ptr [rbp + rcx*4 + 0x1d], cl; movabs byte ptr [0x8b4dda014c0002a2], al; sbb dword ptr [rax + 1], ecx; ret; 
0x000000000001d62d: pop rdi; add byte ptr [rax], al; mov qword ptr [rip + 0x11ac1], rax; add rsp, 8; ret; 
0x000000000001d3f3: pop rdi; jne 0x1d3d8; add rdx, 8; add rax, 3; mov qword ptr [rdi], rdx; ret; 
0x0000000000001887: pop rdi; pop rbp; ret; 
0x0000000000002518: pop rdi; ret; 
0x000000000001ce8e: pop rdx; or byte ptr [rcx], al; add byte ptr [rax - 0x377c011c], al; sbb byte ptr [rcx + 0x1084e05], cl; add cl, ch; ret; 
0x000000000001f18d: pop rdx; pop rbx; pop rbp; ret; 
0x00000000000011b3: pop rdx; pop rbx; ret; 
0x000000000001f5f9: pop rdx; xor eax, eax; pop rbp; pop r12; ret; 
0x0000000000001885: pop rsi; pop r15; pop rbp; ret; 
0x0000000000002516: pop rsi; pop r15; ret; 
0x0000000000009843: pop rsi; ret; 
0x000000000001ad92: pop rsp; and al, 0x30; mov rdx, qword ptr [rsp + 0x38]; mov rcx, qword ptr [rsp + 0x40]; add rsp, 0x48; jmp qword ptr [rax]; 
0x000000000001ad10: pop rsp; and al, 0x30; mov rdx, qword ptr [rsp + 0x38]; mov rcx, qword ptr [rsp + 0x40]; add rsp, 0x58; jmp qword ptr [rax]; 
0x0000000000016976: pop rsp; jmp rax; 
0x0000000000014607: pop rsp; pop r13; movups xmmword ptr [rip + 0x1a9a7], xmm0; pop r14; ret; 
0x0000000000001881: pop rsp; pop r13; pop r14; pop r15; pop rbp; ret; 
0x0000000000002512: pop rsp; pop r13; pop r14; pop r15; ret; 
0x00000000000097c4: pop rsp; pop r13; pop r14; ret; 
0x0000000000006710: pop rsp; pop r13; ret; 
0x000000000000143a: pop rsp; ret; 
0x000000000001d35a: pop rsp; shl eax, cl; ret; 
0x0000000000014602: punpcklqdq xmm0, xmm1; pop r12; pop r13; movups xmmword ptr [rip + 0x1a9a7], xmm0; pop r14; ret; 
0x000000000001f537: push 0x110f4158; jo 0x1f5a6; movups xmmword ptr [r8 + 0x78], xmm7; mov eax, r9d; add rsp, 0xd0; ret; 
0x000000000001d11a: push 0x5c415d5b; pop r13; ret; 
0x000000000001f53d: push 0x78110f41; js 0x1f588; mov eax, ecx; add rsp, 0xd0; ret; 
0x000000000001ac42: push qword ptr [rax + rbx + 0x48]; add eax, dword ptr [rdi + 8]; mov rsi, qword ptr [rsp - 0x10]; sub rax, qword ptr fs:[0]; mov rdi, qword ptr [rsp - 8]; ret; 
0x000000000001add7: push qword ptr [rbp + rax + 0x48]; add eax, dword ptr [rdi + 8]; ret; 
0x00000000000230c3: push qword ptr [rbp + rcx + 0x48]; sar edx, cl; test rdx, rdx; je 0x230f0; bsf rax, rdx; ret; 
0x0000000000023053: push qword ptr [rbp + rdi*2 + 0x48]; sar edx, cl; test rdx, rdx; je 0x23100; bsf rax, rdx; ret; 
0x000000000001abb6: push qword ptr [rbp - 0x19]; mov rax, qword ptr [rbp + 0x18]; test rax, rax; je 0x1abc8; mov rdi, qword ptr [rbp]; call rax; 
0x000000000001f210: push qword ptr [rbx + 1]; ret; 
0x0000000000014cd4: push qword ptr [rcx + rcx + 0x48]; mov eax, dword ptr [rbp + 8]; pop rbp; add rax, rdx; ret; 
0x0000000000001d0f: push qword ptr [rcx]; neg byte ptr [rbx + 0x48]; mov eax, esi; ret; 
0x000000000001a57d: push qword ptr [rcx]; test byte ptr [rax - 0x73], 0x3d; int 0xab; add byte ptr [rax], al; mov eax, 0x15; syscall; 
0x000000000001df50: push qword ptr [rdi + 0x15]; mov qword ptr [rip + 0x111b6], rax; cmp rdi, rax; ja 0x1df80; xor eax, eax; ret; 
0x000000000001f2b3: push qword ptr [rdi + 0x1a]; hlt; mov edi, edx; mov eax, r8d; syscall; 
0x000000000001ee86: push qword ptr [rdi + 0x1f]; ret; 
0x000000000001eee5: push qword ptr [rdi + 0x20]; ret; 
0x000000000001efdb: push qword ptr [rdi + 0x2a]; ret; 
0x000000000001ef6d: push qword ptr [rdi + 0x30]; ret; 
0x000000000001f18b: push qword ptr [rdi + 0x5a]; pop rbx; pop rbp; ret; 
0x000000000001e4d3: push qword ptr [rdi + 0xa]; ret; 
0x000000000001eb00: push qword ptr [rdi + 5]; ret; 
0x000000000001ecef: push qword ptr [rdi + 6]; ret; 
0x000000000001ed3e: push qword ptr [rdi + 7]; ret; 
0x000000000001f02d: push qword ptr [rdi + 8]; ret; 
0x000000000001e794: push qword ptr [rdi + 9]; ret; 
0x000000000001f176: push qword ptr [rdi + rsi + 0x41]; mov edx, ebx; mov rdi, rbp; mov eax, 9; syscall; 
0x000000000001ef05: push qword ptr [rsi + 0x18]; neg eax; mov dword ptr [rip + 0x10230], eax; mov eax, 0xffffffff; ret; 
0x000000000001eea5: push qword ptr [rsi + 0x18]; neg eax; mov dword ptr [rip + 0x10290], eax; mov eax, 0xffffffff; ret; 
0x0000000000014d27: push qword ptr [rsi + rcx + 0x48]; add eax, dword ptr [rdi + 8]; ret; 
0x0000000000011ac9: push qword ptr [rsp + 0x10]; mov qword ptr [rsp + 0x10], r9; call rax; 
0x00000000000113e7: push qword ptr [rsp + 0x20]; mov r8, qword ptr [rsp + 0x20]; call rax; 
0x0000000000011a30: push qword ptr [rsp + 8]; call rax; 
0x000000000001e9a0: push r8; add byte ptr [rax], al; add byte ptr [rax], al; movups xmmword ptr [rbx + 0x38], xmm0; pop rbx; ret; 
0x00000000000113e5: push r8; push qword ptr [rsp + 0x20]; mov r8, qword ptr [rsp + 0x20]; call rax; 
0x0000000000019f83: push r9; add dword ptr [rax], eax; add byte ptr [rax], al; add byte ptr [rax], al; add rsp, 8; ret; 
0x0000000000019f77: push r9; add dword ptr [rax], eax; call 0x1f200; mov qword ptr [rip + 0x1514d], 0; add rsp, 8; ret; 
0x00000000000145cb: push rax; add al, 0; add byte ptr [rax - 0x77], cl; ret; 
0x000000000001454e: push rax; add al, 0; add byte ptr [rcx - 0x77], cl; ret; 
0x000000000001e9a1: push rax; add byte ptr [rax], al; add byte ptr [rax], al; movups xmmword ptr [rbx + 0x38], xmm0; pop rbx; ret; 
0x000000000000310f: push rax; and byte ptr [rdi], cl; mov bh, 0x70; cmp byte ptr [rax + 1], cl; ret 0x4166; 
0x000000000001693e: push rax; inc dword ptr [rbp + 0x481a74c0]; lea ebx, [rbp + rdx*8]; nop dword ptr [rax]; call qword ptr [rbx]; 
0x0000000000003414: push rax; or byte ptr [rcx - 0x77], al; xchg eax, ebp; call 0xfffffffff6003421; ret 0x7402; 
0x000000000000303f: push rax; or byte ptr [rcx - 0x77], al; xchg eax, edi; call 0xfffffffff600304c; ret 0x7402; 
0x000000000001d62c: push rax; pop rdi; add byte ptr [rax], al; mov qword ptr [rip + 0x11ac1], rax; add rsp, 8; ret; 
0x00000000000113e6: push rax; push qword ptr [rsp + 0x20]; mov r8, qword ptr [rsp + 0x20]; call rax; 
0x000000000001e041: push rbp; mov rbp, rsi; push rbx; mov rbx, rdi; sub rsp, 0xe8; syscall; 
0x00000000000022a6: push rbp; test al, 0x48; mov dword ptr [rbp - 0x50], ecx; mov qword ptr [rbp - 0x48], rdi; call rax; 
0x000000000000378f: push rbx; adc byte ptr [rax - 0x7d], cl; ret; 
0x0000000000007b9e: push rbx; and byte ptr [rax - 0x75], cl; sub byte ptr [r8 + 0x39], r9b; ret 0x870f; 
0x000000000001e045: push rbx; mov rbx, rdi; sub rsp, 0xe8; syscall; 
0x0000000000019f84: push rcx; add dword ptr [rax], eax; add byte ptr [rax], al; add byte ptr [rax], al; add rsp, 8; ret; 
0x0000000000019f78: push rcx; add dword ptr [rax], eax; call 0x1f200; mov qword ptr [rip + 0x1514d], 0; add rsp, 8; ret; 
0x0000000000019f58: push rcx; add dword ptr [rax], eax; lea rax, [rdi - 1]; cmp rax, -3; jbe 0x19f70; ret; 
0x0000000000014e4b: push rcx; ret 0xfffe; 
0x0000000000017e7d: push rdi; add dword ptr [rax], eax; jne 0x17e88; ret; 
0x0000000000019fb0: push rdi; and dh, al; sub byte ptr [r9], r8b; ret; 
0x00000000000233a2: push rdi; movups xmm0, xmmword ptr [rsi]; movups xmm1, xmmword ptr [rsi + rdx - 0x10]; movups xmmword ptr [rdi], xmm0; movups xmmword ptr [rdi + rdx - 0x10], xmm1; ret; 
0x0000000000019faa: push rdi; sbb byte ptr [rdi + 0x16], dh; mov qword ptr [rdi + 0x20], rdx; mov byte ptr [rdi + 0x28], 1; ret; 
0x0000000000019fd0: push rdi; sbb byte ptr [rdi - 0x10], bh; mov qword ptr [rdi + 0x20], rdx; mov byte ptr [rdi + 0x28], 1; ret; 
0x0000000000022548: push rdi; xor eax, eax; ret; 
0x0000000000019f7d: push rdx; add byte ptr [rax], al; mov qword ptr [rip + 0x1514d], 0; add rsp, 8; ret; 
0x000000000001beea: push rdx; idiv edi; jmp qword ptr [rsi - 0x7f]; 
0x000000000001892a: push rdx; mov edi, edi; dec dword ptr [rcx - 0x77]; ret; 
0x000000000001ca32: push rdx; or byte ptr [rax - 0x75], cl; adc byte ptr [rax - 0x7d], cl; ret 0x4110; 
0x0000000000009247: push rsi; jo 0xffffffff950f9648; rol byte ptr [rdx + rdx*8 - 0x72b7f08c], 0x1d; sti; ret 1; 
0x000000000001ad97: push rsp; and al, 0x38; mov rcx, qword ptr [rsp + 0x40]; add rsp, 0x48; jmp qword ptr [rax]; 
0x000000000001ad15: push rsp; and al, 0x38; mov rcx, qword ptr [rsp + 0x40]; add rsp, 0x58; jmp qword ptr [rax]; 
0x000000000001ee92: push rsp; and al, 0xb0; mov esi, 0x10; mov eax, 0x48; syscall; 
0x000000000001eef2: push rsp; and al, 0xf8; mov esi, 0x10; mov eax, 0x48; syscall; 
0x000000000001eac2: rcr byte ptr [rbp + 0x41], 0x5c; ret; 
0x000000000000b441: rcr byte ptr [rbx + 0x5d], 0x41; pop rsp; pop r13; pop r14; ret; 
0x000000000001ea2a: rcr byte ptr [rbx + 0x5d], 0x41; pop rsp; ret; 
0x000000000001d353: rcr dword ptr [rbx + 0x5d], 0xc1; loope 0x1d35c; pop r12; shl eax, cl; ret; 
0x0000000000001738: ret 0; 
0x00000000000234b1: ret 0x100f; 
0x000000000001d1f2: ret 0x105; 
0x000000000000afb3: ret 0x1075; 
0x000000000000883a: ret 0x1377; 
0x000000000001de2a: ret 0x148; 
0x00000000000095f1: ret 0x149; 
0x0000000000017614: ret 0x16eb; 
0x00000000000106c2: ret 0x175; 
0x00000000000225b5: ret 0x1876; 
0x000000000000c96f: ret 0x18e9; 
0x00000000000139d2: ret 0x1b6; 
0x0000000000005bba: ret 0x1e4; 
0x000000000001e1d1: ret 0x2040; 
0x0000000000007211: ret 0x2148; 
0x000000000000d812: ret 0x217; 
0x000000000000d712: ret 0x218; 
0x000000000000cca2: ret 0x21c; 
0x0000000000013660: ret 0x2275; 
0x00000000000232b8: ret 0x2288; 
0x00000000000194b9: ret 0x2476; 
0x0000000000006b52: ret 0x2548; 
0x000000000000aae7: ret 0x25e9; 
0x0000000000023106: ret 0x2774; 
0x00000000000225a5: ret 0x2876; 
0x00000000000136d5: ret 0x28f5; 
0x000000000000bc2f: ret 0x290f; 
0x000000000000d6d5: ret 0x2948; 
0x0000000000006342: ret 0x294c; 
0x0000000000003ea1: ret 0x2a1; 
0x00000000000177ad: ret 0x2b49; 
0x00000000000014c2: ret 0x2c6; 
0x0000000000016fef: ret 0x2eeb; 
0x000000000001d253: ret 0x30eb; 
0x0000000000004123: ret 0x3101; 
0x00000000000012de: ret 0x3145; 
0x000000000000b832: ret 0x3148; 
0x000000000001142a: ret 0x3375; 
0x0000000000016e58: ret 0x348; 
0x0000000000022595: ret 0x3876; 
0x00000000000120c7: ret 0x3901; 
0x0000000000001642: ret 0x3948; 
0x00000000000040ff: ret 0x394c; 
0x0000000000003753: ret 0x4001; 
0x0000000000016d2a: ret 0x4076; 
0x0000000000017013: ret 0x4108; 
0x000000000001c952: ret 0x4110; 
0x0000000000003117: ret 0x4166; 
0x0000000000008121: ret 0x4189; 
0x0000000000016dca: ret 0x4401; 
0x0000000000019b9f: ret 0x4475; 
0x000000000000c92f: ret 0x4674; 
0x0000000000016da2: ret 0x4776; 
0x00000000000062cd: ret 0x4801; 
0x000000000001d26b: ret 0x4803; 
0x0000000000006aa8: ret 0x4807; 
0x000000000001055b: ret 0x4808; 
0x0000000000001e98: ret 0x4810; 
0x000000000001f327: ret 0x4811; 
0x0000000000003148: ret 0x4838; 
0x0000000000001117: ret 0x4852; 
0x0000000000022e5c: ret 0x48c3; 
0x000000000000bf1a: ret 0x4901; 
0x0000000000012605: ret 0x4908; 
0x0000000000003160: ret 0x4938; 
0x000000000000f621: ret 0x4966; 
0x00000000000016ff: ret 0x4c08; 
0x00000000000120db: ret 0x4d01; 
0x00000000000105ae: ret 0x4d08; 
0x0000000000010d54: ret 0x4f10; 
0x0000000000019ffb: ret 0x508b; 
0x00000000000116db: ret 0x5389; 
0x000000000001e103: ret 0x5488; 
0x00000000000145e8: ret 0x548; 
0x000000000001d5d8: ret 0x576; 
0x00000000000048c9: ret 0x589; 
0x00000000000113fa: ret 0x5958; 
0x0000000000013a8d: ret 0x5de8; 
0x000000000000e270: ret 0x6349; 
0x0000000000022521: ret 0x6620; 
0x0000000000022d73: ret 0x66c3; 
0x000000000000eb24: ret 0x66e8; 
0x000000000000cefb: ret 0x66e9; 
0x0000000000003049: ret 0x7402; 
0x000000000000e6ce: ret 0x7403; 
0x0000000000003055: ret 0x7404; 
0x000000000001e4b5: ret 0x7540; 
0x000000000000681b: ret 0x774; 
0x000000000000ac91: ret 0x7be9; 
0x00000000000224c1: ret 0x7e20; 
0x000000000001f7ec: ret 0x7f10; 
0x00000000000209c9: ret 0x8000; 
0x000000000000ae40: ret 0x80f6; 
0x0000000000006284: ret 0x8148; 
0x000000000000ee43: ret 0x8305; 
0x00000000000120ca: ret 0x830f; 
0x0000000000007b04: ret 0x8341; 
0x0000000000009d72: ret 0x8348; 
0x000000000000e573: ret 0x8349; 
0x000000000000a36b: ret 0x8401; 
0x000000000000a9d6: ret 0x840f; 
0x0000000000002968: ret 0x850f; 
0x00000000000048f7: ret 0x8548; 
0x0000000000011e98: ret 0x854d; 
0x0000000000002656: ret 0x85c7; 
0x0000000000004b29: ret 0x860f; 
0x0000000000007ba6: ret 0x870f; 
0x00000000000225c5: ret 0x876; 
0x000000000001a542: ret 0x8801; 
0x000000000001ae83: ret 0x8941; 
0x000000000000e273: ret 0x8944; 
0x000000000000156e: ret 0x8948; 
0x000000000000e46f: ret 0x8949; 
0x00000000000019ff: ret 0x894c; 
0x0000000000003081: ret 0x8a8; 
0x0000000000019cee: ret 0x8b30; 
0x0000000000004093: ret 0x8b48; 
0x000000000000c685: ret 0x8b49; 
0x0000000000003327: ret 0x8b4d; 
0x000000000001a82e: ret 0x8d01; 
0x0000000000002547: ret 0x8d04; 
0x0000000000004de8: ret 0x8d48; 
0x0000000000001791: ret 0x8d49; 
0x00000000000108c1: ret 0x8d4a; 
0x0000000000014826: ret 0x8d4c; 
0x00000000000019ac: ret 0x8d4d; 
0x0000000000010d9d: ret 0x9066; 
0x000000000001b376: ret 0x948; 
0x000000000001d283: ret 0x9a73; 
0x000000000001db1d: ret 0xade8; 
0x0000000000005eef: ret 0xb60f; 
0x0000000000004534: ret 0xb6e8; 
0x000000000001327c: ret 0xb70f; 
0x00000000000120e2: ret 0xb872; 
0x000000000001c9f2: ret 0xbb10; 
0x0000000000020889: ret 0xc000; 
0x0000000000001a22: ret 0xc031; 
0x00000000000124f2: ret 0xc083; 
0x0000000000005b88: ret 0xc085; 
0x0000000000005e85: ret 0xc148; 
0x0000000000005f01: ret 0xc383; 
0x000000000001c8fe: ret 0xc610; 
0x000000000000d4da: ret 0xc6; 
0x0000000000018fc2: ret 0xc8e8; 
0x000000000000cffc: ret 0xc931; 
0x000000000001212d: ret 0xc972; 
0x0000000000023205: ret 0xc9ff; 
0x000000000000c555: ret 0xd108; 
0x00000000000016f5: ret 0xd231; 
0x000000000000b59e: ret 0xd348; 
0x000000000000af86: ret 0xd75; 
0x00000000000195e2: ret 0xd8f7; 
0x0000000000020749: ret 0xe000; 
0x0000000000004449: ret 0xe283; 
0x00000000000063b9: ret 0xe473; 
0x000000000000cba2: ret 0xe5e9; 
0x000000000000a4d2: ret 0xe8c0; 
0x00000000000232a6: ret 0xe908; 
0x0000000000014cec: ret 0xe95d; 
0x000000000000d48d: ret 0xeac1; 
0x000000000001a6e4: ret 0xeb01; 
0x0000000000020609: ret 0xf000; 
0x0000000000009eff: ret 0xf01; 
0x000000000001ae4a: ret 0xf03; 
0x000000000000f29d: ret 0xf04; 
0x0000000000006a43: ret 0xf07; 
0x00000000000078b0: ret 0xf08; 
0x000000000001f7a2: ret 0xf10; 
0x000000000001986a: ret 0xf30; 
0x000000000000a55a: ret 0xf40; 
0x000000000000ee31: ret 0xf41; 
0x000000000001d6ad: ret 0xf43; 
0x000000000000d369: ret 0xf475; 
0x000000000000f8d2: ret 0xf48; 
0x0000000000013195: ret 0xf5e8; 
0x000000000000532d: ret 0xf641; 
0x0000000000010aed: ret 0xf66; 
0x000000000000ef86: ret 0xf748; 
0x000000000001e779: ret 0xf789; 
0x00000000000204c9: ret 0xf800; 
0x000000000000a5d1: ret 0xf883; 
0x000000000000a808: ret 0xfa83; 
0x000000000000ca67: ret 0xfae9; 
0x000000000001ae34: ret 0xfb83; 
0x0000000000020389: ret 0xfc00; 
0x0000000000014d89: ret 0xfc3; 
0x0000000000020249: ret 0xfe00; 
0x0000000000020109: ret 0xff00; 
0x0000000000011975: ret 0xff3; 
0x0000000000002e0e: ret 0xff3e; 
0x000000000001ffc9: ret 0xff80; 
0x0000000000005bfa: ret 0xffb5; 
0x000000000001fe89: ret 0xffc0; 
0x000000000001fd49: ret 0xffe0; 
0x0000000000004ea6: ret 0xffe5; 
0x000000000001fc09: ret 0xfff0; 
0x00000000000082a0: ret 0xfff8; 
0x000000000001f989: ret 0xfffc; 
0x000000000000b322: ret 0xfffd; 
0x000000000000193a: ret 0xfffe; 
0x000000000000543f: ret 0xffff; 
0x0000000000009257: ret 1; 
0x0000000000001dc4: ret 2; 
0x000000000002285d: ret 4; 
0x0000000000007964: ret 5; 
0x0000000000022879: ret 8; 
0x0000000000001158: ret; 
0x000000000000381c: retf 0x2b48; push rbx; adc byte ptr [rax - 0x7d], cl; ret; 
0x000000000001365d: retf 0x394c; ret 0x2275; 
0x000000000001d62a: retf 0x50e8; pop rdi; add byte ptr [rax], al; mov qword ptr [rip + 0x11ac1], rax; add rsp, 8; ret; 
0x000000000001e781: retf 0x8341; stc; add dword ptr [rdi + 0x28], esi; mov eax, 0x106; syscall; 
0x000000000001d923: retf 0xe273; mov rax, r8; ret; 
0x0000000000022fb0: retf 0xf48; mov esp, 0xd00148d2; sub rax, rdi; ret; 
0x0000000000023171: retf 0xf4c; stosd dword ptr [rdi], eax; fimul dword ptr [rax + 0xf]; mov esp, 0xd00148d2; sub rax, rdi; ret; 
0x000000000001f572: retf 0xfb; add byte ptr [rcx + rcx*4 - 0x38], al; add rsp, 0xd0; ret; 
0x00000000000180b2: retf 0xff91; dec dword ptr [rcx - 0x77]; ret; 
0x000000000002251e: rol bl, 0x83; ret 0x6620; 
0x00000000000234f0: rol byte ptr [r9 + 0xf], 1; adc dword ptr [rbx], esp; ret; 
0x00000000000194b3: rol byte ptr [r9 + rbp - 0x10], 0x39; ret 0x2476; 
0x0000000000023102: rol byte ptr [rax + 0x49], 0x39; ret 0x2774; 
0x0000000000003050: rol byte ptr [rax], 0; add dh, dh; ret 0x7404; 
0x000000000001f549: rol byte ptr [rax], 1; add byte ptr [rax], al; ret; 
0x000000000001efbf: rol byte ptr [rbp + 0x31], 1; shl byte ptr [rip + 0x410000], cl; cmp eax, 0x410000; je 0x1efe0; mov eax, 0x101; syscall; 
0x0000000000022772: rol byte ptr [rbp + 0x664975c0], 0xf; xlatb; ret 0xc085; 
0x000000000001ea31: rol byte ptr [rbx + 0x107073d], 0; add dh, byte ptr [rdi + 0x5b]; pop rbp; pop r12; ret; 
0x000000000000b368: rol byte ptr [rbx - 0x7a99fe20], 1; ror byte ptr [rdi], cl; xchg eax, esp; ret 0xb60f; 
0x000000000001d3fc: rol byte ptr [rbx], 0x48; mov dword ptr [rdi], edx; ret; 
0x00000000000234f1: rol byte ptr [rcx + 0xf], 1; adc dword ptr [rbx], esp; ret; 
0x00000000000194b4: rol byte ptr [rcx + rbp - 0x10], 0x39; ret 0x2476; 
0x00000000000016f2: rol byte ptr [rcx - 0x77], cl; ret 0xd231; 
0x000000000001d2ad: rol byte ptr [rcx], 1; add byte ptr [rax], al; pop rbx; pop rbp; pop r12; ret; 
0x000000000000924e: rol byte ptr [rdx + rdx*8 - 0x72b7f08c], 0x1d; sti; ret 1; 
0x0000000000022544: rol dword ptr [rbp + 0x315775c0], 0xc0; ret; 
0x0000000000022514: rol dword ptr [rbp - 0x5c7af040], 0; add byte ptr [rax], al; xor eax, eax; ret; 
0x0000000000014605: rol dword ptr [rcx + 0x5c], 0x41; pop rbp; movups xmmword ptr [rip + 0x1a9a7], xmm0; pop r14; ret; 
0x0000000000001caf: rol dword ptr [rdx], cl; add byte ptr [rax + 0x9e], bh; mov qword ptr [rsi], rsi; mov qword ptr [rsi + 0x10], rsi; syscall; 
0x0000000000001cf8: rol dword ptr [rdx], cl; add byte ptr [rcx], al; pop rbx; ret; 
0x000000000002232b: ror byte ptr [rax + 0x29], 0xc2; jbe 0x225d0; add rax, rdi; add rax, rcx; ret; 
0x0000000000022592: ror byte ptr [rax + 0x29], 0xc2; jbe 0x225d0; add rax, rdi; ret; 
0x00000000000225a2: ror byte ptr [rax + 0x29], 0xc2; jbe 0x225d0; lea rax, [rdi + rax + 0x10]; ret; 
0x00000000000225b2: ror byte ptr [rax + 0x29], 0xc2; jbe 0x225d0; lea rax, [rdi + rax + 0x20]; ret; 
0x00000000000225c2: ror byte ptr [rax + 0x29], 0xc2; jbe 0x225d0; lea rax, [rdi + rax + 0x30]; ret; 
0x0000000000022fb7: ror byte ptr [rax + 0x29], 1; clc; ret; 
0x000000000000ae3c: ror byte ptr [rax + 0xf], 0x44; ret 0x80f6; 
0x0000000000003583: ror byte ptr [rax + 0xf], cl; ror dword ptr [r8 - 0x7d], 1; ret; 
0x000000000002264c: ror byte ptr [rax + 1], 0xf8; add rax, rcx; ret; 
0x0000000000022562: ror byte ptr [rax + 1], 0xf8; ret; 
0x0000000000022fb4: ror byte ptr [rax + 1], cl; ror byte ptr [rax + 0x29], 1; clc; ret; 
0x00000000000228e6: ror byte ptr [rax - 0x2d], 0xfa; movzx edx, dl; sub eax, edx; ret; 
0x0000000000022ef6: ror byte ptr [rax - 0x2d], 0xfa; test rdx, rdx; je 0x22f10; bsf rax, rdx; ret; 
0x0000000000022e99: ror byte ptr [rax - 0x2d], 0xfa; test rdx, rdx; je 0x22f20; bsf rax, rdx; ret; 
0x0000000000009d66: ror byte ptr [rax - 0x3f], 0xef; add ah, byte ptr [rsi + 0xf]; jo 0x9d30; add byte ptr [rax - 0x77], cl; ret 0x8348; 
0x0000000000022552: ror byte ptr [rax - 0x73], 0x44; cmp al, dh; ret; 
0x0000000000022582: ror byte ptr [rax - 0x73], 0x44; cmp byte ptr [rax], ah; ret; 
0x0000000000022572: ror byte ptr [rax - 0x73], 0x44; cmp byte ptr [rax], dl; ret; 
0x00000000000142f3: ror byte ptr [rax - 0x73], 1; cmp eax, 0x1a66d; mov rbx, rax; call rcx; 
0x0000000000012103: ror byte ptr [rax - 0x73], 1; or eax, 0x1bf55; mov dword ptr [rbp - 0x38], edx; shl rax, 4; lea rdi, [rcx + rax + 0xe08]; call rsi; 
0x000000000001c51c: ror byte ptr [rax - 0x77], 5; in al, 0x11; add dword ptr [rax], eax; add rsp, 0x88; pop rbx; ret; 
0x000000000000ab6f: ror byte ptr [rax - 0x77], cl; ret; 
0x0000000000012d2e: ror byte ptr [rax - 0x7b], 0xf6; je 0x12d37; mov qword ptr [rsi], rdi; mov rax, r8; ret; 
0x000000000000e0d6: ror byte ptr [rax - 0x7d], 1; ret; 
0x000000000002336b: ror byte ptr [rax - 0x7f], 0xc4; add byte ptr [rcx], al; add byte ptr [rax], al; sub rax, rdx; ret; 
0x0000000000023368: ror byte ptr [rax - 1], 0xc0; add rsp, 0x100; sub rax, rdx; ret; 
0x0000000000023365: ror byte ptr [rax - 1], 0xc0; inc rax; add rsp, 0x100; sub rax, rdx; ret; 
0x0000000000012da3: ror byte ptr [rax - 9], 0xd8; test cl, cl; cmove r8, rax; mov rax, r8; ret; 
0x000000000001d5ec: ror byte ptr [rax - 9], cl; test byte ptr [rax + 0x39], 0xc8; je 0x1d5e0; xor eax, eax; ret; 
0x000000000000543a: ror byte ptr [rbp + rcx*4 + 0x2d], 0xde; ret 0xffff; 
0x00000000000107ce: ror byte ptr [rbp - 0x7b], cl; dec dword ptr [rax - 0x77]; mov r8b, 0xf; xchg eax, ebp; ret 0x2148; 
0x0000000000022283: ror byte ptr [rcx + 0x29], cl; sal dword ptr [rsi + 0xb], cl; movzx ecx, byte ptr [rsi + rdx]; movzx eax, byte ptr [rdi + rdx]; sub eax, ecx; ret; 
0x00000000000166c3: ror byte ptr [rcx - 0x75], 0x77; or al, ch; ret; 
0x000000000001f3e2: ror byte ptr [rdi], 0; add byte ptr [rax], al; syscall; 
0x0000000000005b79: ror byte ptr [rdi], 0x84; add al, byte ptr [rax]; add byte ptr [rdi + 1], bh; call rax; 
0x0000000000007961: ror byte ptr [rdi], 0x85; ret 5; 
0x000000000001b023: ror byte ptr [rdi], 0x85; ret; 
0x0000000000016e55: ror byte ptr [rdi], 0x94; ret 0x348; 
0x000000000000caad: ror byte ptr [rdi], 0x94; ret 0x3948; 
0x0000000000014b21: ror byte ptr [rdi], 0x94; ret; 
0x0000000000023449: ror byte ptr [rdi], 1; adc dword ptr [rdi + rdx - 0x40], edi; ret; 
0x0000000000022836: ror byte ptr [rdi], 1; test dword ptr [rax + rax - 0x8b70000], ecx; ret 2; 
0x000000000001ae3c: ror byte ptr [rdi], 1; test ebp, edi; add dword ptr [rax], eax; add byte ptr [rbx + 0x1412f15], cl; add dh, dh; ret 0xf03; 
0x000000000001f025: ror byte ptr [rdi], 5; cmp rax, -0x1000; ja 0x1f038; ret; 
0x000000000002305b: ror byte ptr [rdi], cl; test byte ptr [rsi + 0x48000000], bl; bsf eax, edx; ret; 
0x0000000000008133: ror byte ptr [rdi], cl; xchg eax, ebp; ret 0x8341; 
0x0000000000005efe: ror byte ptr [rdi], cl; xchg eax, ebp; ret 0xc383; 
0x000000000000b36e: ror byte ptr [rdi], cl; xchg eax, esp; ret 0xb60f; 
0x000000000000c946: ror byte ptr [rdi], cl; xchg eax, esp; ret 0xd108; 
0x00000000000068fe: ror cl, 0xb8; add dword ptr [rax], eax; add byte ptr [rax], al; ret; 
0x0000000000003586: ror dword ptr [r8 - 0x7d], 1; ret; 
0x0000000000012c3c: ror dword ptr [rax + 0x39], 0xd1; jne 0x12c18; mov eax, dword ptr [rcx]; ret; 
0x0000000000022fa9: ror dword ptr [rax - 0x3f], 0xe1; and byte ptr [rax + 9], cl; retf 0xf48; mov esp, 0xd00148d2; sub rax, rdi; ret; 
0x0000000000001ea8: ror dword ptr [rax - 0x75], 0x42; adc byte ptr [rax - 0x7d], cl; ret 0x4810; 
0x000000000000bc26: ror dword ptr [rax - 0x75], cl; jl 0xbc4f; xor byte ptr [rsi + 0xf], ah; insb byte ptr [rdi], dx; ret 0x290f; 
0x000000000000165e: ror dword ptr [rax - 0x77], 1; ret 0x3948; 
0x000000000000b59b: ror dword ptr [rax - 0x77], 1; ret 0xd348; 
0x000000000000adec: ror dword ptr [rax - 0x77], 1; ret; 
0x0000000000022ef2: ror dword ptr [rax - 0x7d], 0xe0; ror byte ptr [rax - 0x2d], 0xfa; test rdx, rdx; je 0x22f10; bsf rax, rdx; ret; 
0x0000000000022e95: ror dword ptr [rax - 0x7d], 0xe0; ror byte ptr [rax - 0x2d], 0xfa; test rdx, rdx; je 0x22f20; bsf rax, rdx; ret; 
0x0000000000003587: ror dword ptr [rax - 0x7d], 1; ret; 
0x0000000000016c48: ror dword ptr [rax], 0x83; ret 0x4801; 
0x0000000000017024: ror dword ptr [rcx - 0x75], cl; add cl, byte ptr [rcx - 0x7d]; ret 0x4808; 
0x000000000000a364: ror dword ptr [rdi], 0xb6; add dword ptr [rax - 0x7d], ecx; ret 0x8401; 
0x0000000000001cb3: sahf; add byte ptr [rax], al; add byte ptr [rax - 0x77], cl; mov qword ptr ss:[rsi + 0x10], rsi; syscall; 
0x00000000000046c2: sahf; add byte ptr [rax], al; add byte ptr [rdi + 0x1002], bh; mov qword ptr [rbx + 0x10], rbx; syscall; 
0x000000000001b01c: sahf; add byte ptr [rax], al; add byte ptr [rdi], cl; add eax, 0x850fc085; ret; 
0x00000000000209c7: sal bh, 1; ret 0x8000; 
0x0000000000020887: sal bh, 1; ret 0xc000; 
0x0000000000020747: sal bh, 1; ret 0xe000; 
0x0000000000020607: sal bh, 1; ret 0xf000; 
0x00000000000204c7: sal bh, 1; ret 0xf800; 
0x0000000000020387: sal bh, 1; ret 0xfc00; 
0x0000000000020247: sal bh, 1; ret 0xfe00; 
0x0000000000020107: sal bh, 1; ret 0xff00; 
0x000000000001ffc7: sal bh, 1; ret 0xff80; 
0x000000000001fe87: sal bh, 1; ret 0xffc0; 
0x000000000001fd47: sal bh, 1; ret 0xffe0; 
0x000000000001fc07: sal bh, 1; ret 0xfff0; 
0x000000000001fac7: sal bh, 1; ret 0xfff8; 
0x000000000001f987: sal bh, 1; ret 0xfffc; 
0x000000000001f847: sal bh, 1; ret 0xfffe; 
0x000000000001a62d: sal byte ptr [rax + rdx + 0x48], cl; lea edi, [rcx + rsi + 0x20]; jmp rdx; 
0x0000000000005689: sal byte ptr [rax + rsi + 0x48], 1; ret; 
0x0000000000015164: sal byte ptr [rbp + 0x19], 0x48; mov dword ptr [rbx], 0; pop rbx; or dword ptr [rip + 0x19e22], 1; ret; 
0x0000000000022792: sal byte ptr [rbp + 0x4b], 0x66; pmovmskb eax, mm1; bsf eax, eax; lea rax, [rdi + rax + 0x30]; ret; 
0x000000000001dcab: sal byte ptr [rbp + 0x72], 0x48; mov ecx, dword ptr [rsp + 0x10]; mov rdi, qword ptr [rsp + 0x18]; call rcx; 
0x0000000000001dd3: sal byte ptr [rbp + 0xa], 0x5b; ret; 
0x000000000000e99f: sal byte ptr [rbp + 2], cl; call rax; 
0x00000000000111da: sal byte ptr [rbp + 3], cl; mov qword ptr [rbx], rax; add rsp, 0x10; pop rbx; ret; 
0x000000000000795c: sal byte ptr [rcx + rax], 0x85; ror byte ptr [rdi], 0x85; ret 5; 
0x0000000000022efc: sal byte ptr [rcx + rdx + 0x48], cl; bsf eax, edx; ret; 
0x0000000000011b7f: sal byte ptr [rcx - 0x73], cl; dec dword ptr [rbp + r9*4 + 0x74]; ret; 
0x0000000000006cf6: sal byte ptr [rdi + 0x48], 0x89; ret; 
0x000000000001440a: sal byte ptr [rdi + 0xb], 0x48; add esp, 8; ret; 
0x00000000000230cb: sal byte ptr [rdx + 0x48], cl; bsf eax, edx; ret; 
0x00000000000133a3: sal byte ptr [rdx + rbp + 0x48], 1; ret 0xb70f; 
0x00000000000232b3: sal byte ptr [rdx + rdx + 0x48], 0xff; ret 0x2288; 
0x000000000001abbf: sal byte ptr [rsi + rax + 0x48], 0x8b; jge 0x1abc6; call rax; 
0x0000000000001dcd: sal byte ptr [rsi + rax - 0x75], 3; test eax, eax; jne 0x1de0; pop rbx; ret; 
0x000000000000633d: sal byte ptr [rsi + rbp + 0x48], 0x89; ret 0x294c; 
0x0000000000022e9f: sal byte ptr [rsi + rdi*2 + 0x48], cl; bsf eax, edx; ret; 
0x0000000000022647: sal byte ptr [rsi + rdx + 0xf], 0xbc; ror byte ptr [rax + 1], 0xf8; add rax, rcx; ret; 
0x000000000001305f: sal byte ptr [rsi + rsi + 0x48], 1; ret; 
0x000000000000340f: sal byte ptr [rsp + rbp + 0x48], 0x8b; push rax; or byte ptr [rcx - 0x77], al; xchg eax, ebp; call 0xfffffffff6003421; ret 0x7402; 
0x000000000000303a: sal byte ptr [rsp + rbp + 0x48], 0x8b; push rax; or byte ptr [rcx - 0x77], al; xchg eax, edi; call 0xfffffffff600304c; ret 0x7402; 
0x0000000000014e01: sal byte ptr [rsp + rdi + 0x48], 0x89; ret; 
0x00000000000078ae: sal dh, 1; ret 0xf08; 
0x0000000000012c3f: sal dword ptr [rbp - 0x2a], 1; mov eax, dword ptr [rcx]; ret; 
0x0000000000022286: sal dword ptr [rsi + 0xb], cl; movzx ecx, byte ptr [rsi + rdx]; movzx eax, byte ptr [rdi + rdx]; sub eax, ecx; ret; 
0x000000000001eaf2: sar byte ptr [r8 + 0xd9], 1; syscall; 
0x000000000001eaf2: sar byte ptr [r8 + 0xd9], 1; syscall; cmp rax, -0x1000; ja 0x1eb08; ret; 
0x000000000001eaf3: sar byte ptr [rax + 0xd9], 1; syscall; 
0x000000000001eaf3: sar byte ptr [rax + 0xd9], 1; syscall; cmp rax, -0x1000; ja 0x1eb08; ret; 
0x000000000001e01a: sar byte ptr [rax - 0x4b], 0x48; add esp, 8; mov rax, r12; pop rbx; pop r12; ret; 
0x0000000000022c39: sar byte ptr [rdx], 0x48; lea eax, [rdi + rax]; cmp byte ptr [rax], sil; cmovne rax, rdx; ret; 
0x00000000000065d1: sar dh, 0xff; jmp qword ptr [rsi + 0x48]; 
0x00000000000039f8: sar dh, 0xff; jmp qword ptr [rsi + 0xf]; 
0x000000000000f4ac: sar eax, 3; pop rbx; pop rbp; pop r12; ret; 
0x00000000000228e2: sar eax, cl; movzx eax, al; sar rdx, cl; movzx edx, dl; sub eax, edx; ret; 
0x00000000000228e8: sar edx, cl; movzx edx, dl; sub eax, edx; ret; 
0x0000000000022ef8: sar edx, cl; test rdx, rdx; je 0x22f10; bsf rax, rdx; ret; 
0x0000000000022e9b: sar edx, cl; test rdx, rdx; je 0x22f20; bsf rax, rdx; ret; 
0x00000000000230c7: sar edx, cl; test rdx, rdx; je 0x230f0; bsf rax, rdx; ret; 
0x0000000000023057: sar edx, cl; test rdx, rdx; je 0x23100; bsf rax, rdx; ret; 
0x000000000000f4ab: sar rax, 3; pop rbx; pop rbp; pop r12; ret; 
0x00000000000228e1: sar rax, cl; movzx eax, al; sar rdx, cl; movzx edx, dl; sub eax, edx; ret; 
0x00000000000228e7: sar rdx, cl; movzx edx, dl; sub eax, edx; ret; 
0x0000000000022ef7: sar rdx, cl; test rdx, rdx; je 0x22f10; bsf rax, rdx; ret; 
0x0000000000022e9a: sar rdx, cl; test rdx, rdx; je 0x22f20; bsf rax, rdx; ret; 
0x00000000000230c6: sar rdx, cl; test rdx, rdx; je 0x230f0; bsf rax, rdx; ret; 
0x0000000000023056: sar rdx, cl; test rdx, rdx; je 0x23100; bsf rax, rdx; ret; 
0x000000000001d53d: sbb al, 0; add byte ptr [rax - 0x77], cl; ret 0x8348; 
0x0000000000019fa7: sbb al, 0x48; cmp edx, dword ptr [rdi + 0x18]; ja 0x19fc4; mov qword ptr [rdi + 0x20], rdx; mov byte ptr [rdi + 0x28], 1; ret; 
0x000000000000cc88: sbb al, 0xba; add dword ptr [rax], eax; add byte ptr [rax], al; mov esi, 0x81; mov eax, 0xca; syscall; 
0x00000000000166bf: sbb al, 1; add byte ptr [rcx], dh; ror byte ptr [rcx - 0x75], 0x77; or al, ch; ret; 
0x000000000001d608: sbb al, byte ptr [rcx]; add byte ptr [rax + 0x39], cl; stc; je 0x1d618; ret; 
0x0000000000012b7d: sbb al, ch; or eax, 0x48fffff7; add esp, 0xd8; ret; 
0x000000000001ef07: sbb bh, dh; fmul dword ptr [rcx + 0x1023005]; add byte ptr [rax - 1], bh; ret; 
0x000000000001eea7: sbb bh, dh; fmul dword ptr [rcx + 0x1029005]; add byte ptr [rax - 1], bh; ret; 
0x000000000001abbb: sbb byte ptr [r8 - 0x7b], r9b; sal byte ptr [rsi + rax + 0x48], 0x8b; jge 0x1abc6; call rax; 
0x000000000001a013: sbb byte ptr [rax + 0x3b], cl; sbb byte ptr [rdi + 0x12], sil; mov qword ptr [rax + 0x20], rcx; mov byte ptr [rax + 0x28], 1; ret; 
0x000000000001ac44: sbb byte ptr [rax + 3], cl; or byte ptr [r8 - 0x75], r9b; je 0x1ac71; lock sub rax, qword ptr fs:[0]; mov rdi, qword ptr [rsp - 8]; ret; 
0x000000000000df2b: sbb byte ptr [rax + rax], al; add byte ptr [rcx - 0x77], cl; ret; 
0x00000000000094fe: sbb byte ptr [rax - 0x77], cl; ret 0x2548; 
0x000000000001abbc: sbb byte ptr [rax - 0x7b], cl; sal byte ptr [rsi + rax + 0x48], 0x8b; jge 0x1abc6; call rax; 
0x00000000000047a8: sbb byte ptr [rax], al; add byte ptr [rax], al; add byte ptr [rax - 0x77], cl; ret; 
0x000000000001a98b: sbb byte ptr [rbx + 0x5d], bl; pop r12; pop r13; ret; 
0x000000000001ce97: sbb byte ptr [rcx + 0x1084e05], cl; add cl, ch; ret; 
0x000000000001db64: sbb byte ptr [rcx + rcx*4 - 0x19], al; pop rbp; pop r12; jmp rax; 
0x000000000001dbeb: sbb byte ptr [rcx + rcx*4 - 0x1e], cl; mov edi, ebp; pop rbp; pop r12; jmp rax; 
0x000000000001a017: sbb byte ptr [rdi + 0x12], dh; mov qword ptr [rax + 0x20], rcx; mov byte ptr [rax + 0x28], 1; ret; 
0x000000000001a016: sbb byte ptr [rdi + 0x12], sil; mov qword ptr [rax + 0x20], rcx; mov byte ptr [rax + 0x28], 1; ret; 
0x0000000000019fab: sbb byte ptr [rdi + 0x16], dh; mov qword ptr [rdi + 0x20], rdx; mov byte ptr [rdi + 0x28], 1; ret; 
0x000000000001a039: sbb byte ptr [rdi - 0x10], bh; mov qword ptr [rax + 0x20], rcx; mov byte ptr [rax + 0x28], 1; ret; 
0x0000000000019fd1: sbb byte ptr [rdi - 0x10], bh; mov qword ptr [rdi + 0x20], rdx; mov byte ptr [rdi + 0x28], 1; ret; 
0x000000000001a038: sbb byte ptr [rdi - 0x10], dil; mov qword ptr [rax + 0x20], rcx; mov byte ptr [rax + 0x28], 1; ret; 
0x0000000000017172: sbb byte ptr [rdx], al; add byte ptr [rax], al; add byte ptr [rax - 0x77], cl; ret; 
0x000000000001f2b5: sbb dh, ah; mov edi, edx; mov eax, r8d; syscall; 
0x00000000000032c3: sbb dword ptr [rax + 1], ecx; ret; 
0x000000000001ddcb: sbb eax, 0x11330; add rsp, 8; pop rbx; pop rbp; ret; 
0x000000000000c809: sbb eax, 0x24448b48; or byte ptr [rbp + rcx*4 + 5], cl; ret; 
0x000000000000d82a: sbb eax, 0x4000003; pop rbp; ret; 
0x000000000000d732: sbb eax, 0x4000003; xor eax, eax; pop rbp; ret; 
0x0000000000014697: sbb eax, 0x480001a9; mov dword ptr [rdi], eax; mov rax, qword ptr [rip + 0x1a923]; mov qword ptr [rsi], rax; ret; 
0x000000000000937e: sbb eax, 0x48d4890; int 0; add byte ptr [rax], al; add byte ptr [rax - 0x7d], cl; ret; 
0x000000000000a4cd: sbb eax, 0x89000003; ret 0xe8c0; 
0x0000000000007afe: sbb eax, 0xf000003; xchg eax, ebp; ret 0x8341; 
0x00000000000167ef: sbb eax, dword ptr [rcx]; add byte ptr [rcx], dh; shr al, 0xf7; ret 0xffff; 
0x00000000000046bd: sbb ecx, dword ptr [rax - 0x77]; fidivr word ptr [rax + 0x9e]; mov edi, 0x1002; mov qword ptr [rbx + 0x10], rbx; syscall; 
0x0000000000017d41: sbb esp, dword ptr [rbx + 1]; add byte ptr [rsi + 2], bh; add r12d, 1; shl rax, 4; lea rdi, [rdi + rax + 0xe08]; call rcx; 
0x000000000000ae36: scasb al, byte ptr [rdi]; cmp eax, dword ptr [rdx]; add byte ptr [rax - 0x7b], cl; ror byte ptr [rax + 0xf], 0x44; ret 0x80f6; 
0x0000000000010452: scasb al, byte ptr [rdi]; idiv bh; jmp qword ptr [rsi + 0x2e]; 
0x000000000001ecad: scasd eax, dword ptr [rdi]; add byte ptr [r8], al; add rsp, 0xc8; ret; 
0x0000000000014400: scasd eax, dword ptr [rdi]; nop dword ptr [rax]; cmp rax, r8; ja 0x14418; add rsp, 8; ret; 
0x000000000001de29: scasd eax, dword ptr [rdi]; ret 0x148; 
0x00000000000145e7: scasd eax, dword ptr [rdi]; ret 0x548; 
0x0000000000012d89: scasd eax, dword ptr [rdi]; ret 0x8348; 
0x000000000000fabb: scasd eax, dword ptr [rdi]; ret; 
0x000000000001dd79: sete byte ptr [rbx]; add rsp, 0x20; pop rbx; pop rbp; pop r12; ret; 
0x000000000001e4ba: shl byte ptr [rip + 0x410000], 1; cmp eax, 0x410000; je 0x1e4ee; mov eax, 0x101; syscall; 
0x000000000001efc2: shl byte ptr [rip + 0x410000], cl; cmp eax, 0x410000; je 0x1efe0; mov eax, 0x101; syscall; 
0x0000000000022df5: shl byte ptr [rsi + 0xf], 0xeb; ret 0xf66; 
0x0000000000018d9c: shl byte ptr [rsi + 0xf], 1; insb byte ptr [rdi], dx; ret 0xf41; 
0x0000000000018d97: shl dword ptr [rsi + 0x48], 0xf; outsb dx, byte ptr [rsi]; shl byte ptr [rsi + 0xf], 1; insb byte ptr [rdi], dx; ret 0xf41; 
0x000000000002237c: shl dword ptr [rsi + 0xf], 1; xlatb; ret 0xc085; 
0x0000000000007ae3: shl eax, 4; lea r14, [r12 + rax + 0x480]; mov rdx, r14; call rcx; 
0x000000000001747b: shl eax, 4; lea rdi, [r12 + rax + 0x480]; call rcx; 
0x0000000000017ad4: shl eax, 4; lea rdi, [r13 + rax + 0x480]; call rcx; 
0x00000000000050fa: shl eax, 4; lea rdi, [r13 + rax + 0x480]; call rdx; 
0x00000000000051b3: shl eax, 4; lea rdi, [r13 + rax + 0xe08]; call rdx; 
0x0000000000016677: shl eax, 4; lea rdi, [r14 + rax + 0x480]; call rdx; 
0x0000000000007d09: shl eax, 4; lea rdi, [r14 + rax + 0xe08]; call rdx; 
0x0000000000007cc4: shl eax, 4; lea rdi, [r15 + rax + 0x480]; call rdx; 
0x00000000000120ac: shl eax, 4; lea rdi, [r15 + rax + 0x480]; call rsi; 
0x0000000000017cc9: shl eax, 4; lea rdi, [rcx + rax + 0xe08]; call rdx; 
0x000000000001210f: shl eax, 4; lea rdi, [rcx + rax + 0xe08]; call rsi; 
0x0000000000017d4f: shl eax, 4; lea rdi, [rdi + rax + 0xe08]; call rcx; 
0x0000000000016737: shl eax, 4; lea rdi, [rsi + rax + 0xe08]; xor esi, esi; call rdx; 
0x0000000000014d1d: shl eax, 4; mov rax, qword ptr [rdx + rax]; cmp rax, -1; je 0x14d38; add rax, qword ptr [rdi + 8]; ret; 
0x000000000001adcd: shl eax, 4; mov rax, qword ptr [rdx + rax]; cmp rax, -1; je 0x1addf; add rax, qword ptr [rdi + 8]; ret; 
0x0000000000014d76: shl eax, 4; mov rax, qword ptr [rdx + rax]; mov edx, 0; cmp rax, -1; cmove rax, rdx; ret; 
0x000000000001d35b: shl eax, cl; ret; 
0x0000000000022fab: shl ecx, 0x20; or rdx, rcx; bsf rdx, rdx; add rax, rdx; sub rax, rdi; ret; 
0x000000000001d356: shl ecx, 3; pop r12; shl eax, cl; ret; 
0x0000000000014dc0: shl ecx, 4; cmp r8, qword ptr [rcx + rsi + 0x10]; jae 0x14d75; xor eax, eax; ret; 
0x0000000000017688: shl ecx, 4; lea rdi, [rdi + rcx + 0xe08]; call rax; 
0x000000000001222f: shl edx, 4; mov rdx, qword ptr [rcx + rdx]; lea rcx, [rip - 0x5d]; mov qword ptr [rax + 0x10], rcx; mov qword ptr [rax + 8], rdx; ret; 
0x0000000000005edf: shl esi, 4; lea rdx, [r13 + r14 + 8]; call rcx; 
0x0000000000005ede: shl r14, 4; lea rdx, [r13 + r14 + 8]; call rcx; 
0x0000000000007ae2: shl rax, 4; lea r14, [r12 + rax + 0x480]; mov rdx, r14; call rcx; 
0x000000000001747a: shl rax, 4; lea rdi, [r12 + rax + 0x480]; call rcx; 
0x0000000000017ad3: shl rax, 4; lea rdi, [r13 + rax + 0x480]; call rcx; 
0x00000000000050f9: shl rax, 4; lea rdi, [r13 + rax + 0x480]; call rdx; 
0x00000000000051b2: shl rax, 4; lea rdi, [r13 + rax + 0xe08]; call rdx; 
0x0000000000016676: shl rax, 4; lea rdi, [r14 + rax + 0x480]; call rdx; 
0x0000000000007d08: shl rax, 4; lea rdi, [r14 + rax + 0xe08]; call rdx; 
0x0000000000007cc3: shl rax, 4; lea rdi, [r15 + rax + 0x480]; call rdx; 
0x00000000000120ab: shl rax, 4; lea rdi, [r15 + rax + 0x480]; call rsi; 
0x0000000000017cc8: shl rax, 4; lea rdi, [rcx + rax + 0xe08]; call rdx; 
0x000000000001210e: shl rax, 4; lea rdi, [rcx + rax + 0xe08]; call rsi; 
0x0000000000017d4e: shl rax, 4; lea rdi, [rdi + rax + 0xe08]; call rcx; 
0x0000000000016736: shl rax, 4; lea rdi, [rsi + rax + 0xe08]; xor esi, esi; call rdx; 
0x0000000000014d1c: shl rax, 4; mov rax, qword ptr [rdx + rax]; cmp rax, -1; je 0x14d38; add rax, qword ptr [rdi + 8]; ret; 
0x000000000001adcc: shl rax, 4; mov rax, qword ptr [rdx + rax]; cmp rax, -1; je 0x1addf; add rax, qword ptr [rdi + 8]; ret; 
0x0000000000014d75: shl rax, 4; mov rax, qword ptr [rdx + rax]; mov edx, 0; cmp rax, -1; cmove rax, rdx; ret; 
0x0000000000022faa: shl rcx, 0x20; or rdx, rcx; bsf rdx, rdx; add rax, rdx; sub rax, rdi; ret; 
0x0000000000014dbf: shl rcx, 4; cmp r8, qword ptr [rcx + rsi + 0x10]; jae 0x14d75; xor eax, eax; ret; 
0x0000000000017687: shl rcx, 4; lea rdi, [rdi + rcx + 0xe08]; call rax; 
0x000000000001222e: shl rdx, 4; mov rdx, qword ptr [rcx + rdx]; lea rcx, [rip - 0x5d]; mov qword ptr [rax + 0x10], rcx; mov qword ptr [rax + 8], rdx; ret; 
0x00000000000167f3: shr al, 0xf7; ret 0xffff; 
0x00000000000111f1: shr bl, 0xcf; nop dword ptr [rax]; call rax; 
0x000000000000937c: shr bl, cl; sbb eax, 0x48d4890; int 0; add byte ptr [rax], al; add byte ptr [rax - 0x7d], cl; ret; 
0x000000000001ae30: stc; add cl, byte ptr [rdi]; xchg eax, esp; ret 0xfb83; 
0x000000000001e784: stc; add dword ptr [rdi + 0x28], esi; mov eax, 0x106; syscall; 
0x000000000001d6cc: stc; jb 0x1d742; outsd dx, dword ptr [rsi]; mov word ptr [rax + 4], dx; ret; 
0x000000000001d60d: stc; je 0x1d618; ret; 
0x0000000000002292: stc; or cl, byte ptr [rdi]; test dword ptr [rdi + rdi*8 - 1], eax; jmp qword ptr [rsi + 0xf]; 
0x000000000001ae3f: std; add dword ptr [rax], eax; add byte ptr [rbx + 0x1412f15], cl; add dh, dh; ret 0xf03; 
0x0000000000019f62: std; jbe 0x19f70; ret; 
0x000000000001f573: sti; add byte ptr [rax], al; mov eax, r9d; add rsp, 0xd0; ret; 
0x000000000001b010: sti; add esi, dword ptr [rsp + rbp + 0x31]; idiv byte ptr [rdi + 0x3003]; mov eax, 0x9e; syscall; 
0x0000000000009256: sti; ret 1; 
0x000000000001e048: sti; sub rsp, 0xe8; syscall; 
0x000000000001a584: stosd dword ptr [rdi], eax; add byte ptr [rax], al; mov eax, 0x15; syscall; 
0x0000000000014467: stosd dword ptr [rdi], eax; add dword ptr [rax], eax; add byte ptr [rbp + 0x13], dh; mov r8, qword ptr [rip + 0x1ab2c]; mov rax, r8; ret; 
0x0000000000014471: stosd dword ptr [rdi], eax; add dword ptr [rax], eax; mov rax, r8; ret; 
0x0000000000023174: stosd dword ptr [rdi], eax; fimul dword ptr [rax + 0xf]; mov esp, 0xd00148d2; sub rax, rdi; ret; 
0x000000000001a854: stosd dword ptr [rdi], eax; mov rax, qword ptr [r14 + 0x18]; test rax, rax; je 0x1a867; mov rdi, r15; call rax; 
0x00000000000230d5: stosd dword ptr [rdi], eax; sar rdx, cl; test rdx, rdx; je 0x230f0; bsf rax, rdx; ret; 
0x0000000000014dc9: stosd dword ptr [rdi], eax; xor eax, eax; ret; 
0x000000000001c34c: sub al, 0x2c; add dword ptr [rax], eax; ret; 
0x000000000001b013: sub al, 0x31; idiv byte ptr [rdi + 0x3003]; mov eax, 0x9e; syscall; 
0x0000000000014470: sub al, 0xab; add dword ptr [rax], eax; mov rax, r8; ret; 
0x000000000001e46d: sub al, 0xfe; dec dword ptr [rax - 0x77]; ret; 
0x0000000000007ba2: sub byte ptr [r8 + 0x39], r9b; ret 0x870f; 
0x0000000000019fb3: sub byte ptr [r9], r8b; ret; 
0x000000000001e787: sub byte ptr [rax + 0x106], bh; syscall; 
0x000000000001e787: sub byte ptr [rax + 0x106], bh; syscall; cmp rax, -0x1000; ja 0x1e7a0; ret; 
0x0000000000007ba3: sub byte ptr [rax + 0x39], cl; ret 0x870f; 
0x0000000000014c00: sub byte ptr [rax - 0x7d], cl; ret; 
0x000000000000331d: sub byte ptr [rbp + rcx*4 + 5], cl; cmp esp, dword ptr [rdx + 0x14c0002]; ret 0x8b4d; 
0x000000000001ad8f: sub byte ptr [rbx + rcx*4 + 0x5c], cl; and al, 0x30; mov rdx, qword ptr [rsp + 0x38]; mov rcx, qword ptr [rsp + 0x40]; add rsp, 0x48; jmp qword ptr [rax]; 
0x000000000001ad0d: sub byte ptr [rbx + rcx*4 + 0x5c], cl; and al, 0x30; mov rdx, qword ptr [rsp + 0x38]; mov rcx, qword ptr [rsp + 0x40]; add rsp, 0x58; jmp qword ptr [rax]; 
0x000000000001eb88: sub byte ptr [rbx - 0x1b], dh; mov eax, 1; ret; 
0x000000000001eb87: sub byte ptr [rbx - 0x1b], sil; mov eax, 1; ret; 
0x0000000000007ade: sub byte ptr [rcx + rcx*4 - 0x19], cl; shl rax, 4; lea r14, [r12 + rax + 0x480]; mov rdx, r14; call rcx; 
0x000000000001f3c2: sub byte ptr [rcx - 0x3b76b310], cl; mov rbp, r9; nop; jmp rdx; 
0x0000000000019fb4: sub byte ptr [rcx], al; ret; 
0x00000000000133a5: sub cl, byte ptr [rax + 1]; ret 0xb70f; 
0x0000000000001164: sub dword ptr [rdi + 4], 1; ret; 
0x00000000000234e4: sub dword ptr [rdi], ecx; adc dword ptr [rcx - 0x10], esi; movups xmmword ptr [rcx - 0x20], xmm7; movups xmmword ptr [rcx - 0x30], xmm8; movups xmmword ptr [r11], xmm4; ret; 
0x000000000001eca9: sub dword ptr [rsp], ecx; call 0x23660; add rsp, 0xc8; ret; 
0x0000000000019b97: sub eax, 0x3349646c; add byte ptr [rax + 9], cl; ret 0x4475; 
0x000000000001c259: sub eax, 0xe0830001; clc; or eax, 1; mov dword ptr [rip + 0x12d14], eax; ret; 
0x000000000001ac50: sub eax, dword ptr [0]; mov rdi, qword ptr [rsp - 8]; ret; 
0x000000000001abfa: sub eax, dword ptr [0]; ret; 
0x0000000000019666: sub eax, eax; ret; 
0x0000000000020a2c: sub eax, ecx; ret; 
0x0000000000022fb9: sub eax, edi; ret; 
0x00000000000142f2: sub eax, edx; lea rdi, [rip + 0x1a66d]; mov rbx, rax; call rcx; 
0x000000000001966f: sub eax, edx; ret; 
0x0000000000019665: sub eax, r8d; ret; 
0x0000000000022285: sub ebx, edx; jbe 0x22294; movzx ecx, byte ptr [rsi + rdx]; movzx eax, byte ptr [rdi + rdx]; sub eax, ecx; ret; 
0x000000000001eb82: sub ecx, dword ptr [rax + 0x10]; cmp rcx, qword ptr [rax + 0x28]; jae 0x1eb70; mov eax, 1; ret; 
0x000000000002232d: sub edx, eax; jbe 0x225d0; add rax, rdi; add rax, rcx; ret; 
0x0000000000022594: sub edx, eax; jbe 0x225d0; add rax, rdi; ret; 
0x00000000000225a4: sub edx, eax; jbe 0x225d0; lea rax, [rdi + rax + 0x10]; ret; 
0x00000000000225b4: sub edx, eax; jbe 0x225d0; lea rax, [rdi + rax + 0x20]; ret; 
0x00000000000225c4: sub edx, eax; jbe 0x225d0; lea rax, [rdi + rax + 0x30]; ret; 
0x000000000001d629: sub edx, ecx; call 0x23580; mov qword ptr [rip + 0x11ac1], rax; add rsp, 8; ret; 
0x000000000001e04a: sub esp, 0xe8; syscall; 
0x0000000000011a29: sub esp, 8; mov esi, dword ptr [r13 + 0x10]; push qword ptr [rsp + 8]; call rax; 
0x0000000000011ac6: sub esp, 8; push qword ptr [rsp + 0x10]; mov qword ptr [rsp + 0x10], r9; call rax; 
0x0000000000022284: sub r11, rdx; jbe 0x22294; movzx ecx, byte ptr [rsi + rdx]; movzx eax, byte ptr [rdi + rdx]; sub eax, ecx; ret; 
0x000000000001ac4f: sub rax, qword ptr [0]; mov rdi, qword ptr [rsp - 8]; ret; 
0x000000000001abf9: sub rax, qword ptr [0]; ret; 
0x000000000001ac4e: sub rax, qword ptr fs:[0]; mov rdi, qword ptr [rsp - 8]; ret; 
0x000000000001abf8: sub rax, qword ptr fs:[0]; ret; 
0x0000000000022fb8: sub rax, rdi; ret; 
0x00000000000142f1: sub rax, rdx; lea rdi, [rip + 0x1a66d]; mov rbx, rax; call rcx; 
0x0000000000023373: sub rax, rdx; ret; 
0x000000000001eb81: sub rcx, qword ptr [rax + 0x10]; cmp rcx, qword ptr [rax + 0x28]; jae 0x1eb70; mov eax, 1; ret; 
0x000000000002232c: sub rdx, rax; jbe 0x225d0; add rax, rdi; add rax, rcx; ret; 
0x0000000000022593: sub rdx, rax; jbe 0x225d0; add rax, rdi; ret; 
0x00000000000225a3: sub rdx, rax; jbe 0x225d0; lea rax, [rdi + rax + 0x10]; ret; 
0x00000000000225b3: sub rdx, rax; jbe 0x225d0; lea rax, [rdi + rax + 0x20]; ret; 
0x00000000000225c3: sub rdx, rax; jbe 0x225d0; lea rax, [rdi + rax + 0x30]; ret; 
0x000000000001d628: sub rdx, rcx; call 0x23580; mov qword ptr [rip + 0x11ac1], rax; add rsp, 8; ret; 
0x000000000001e049: sub rsp, 0xe8; syscall; 
0x0000000000011a28: sub rsp, 8; mov esi, dword ptr [r13 + 0x10]; push qword ptr [rsp + 8]; call rax; 
0x0000000000011ac5: sub rsp, 8; push qword ptr [rsp + 0x10]; mov qword ptr [rsp + 0x10], r9; call rax; 
0x0000000000001cbe: syscall; 
0x000000000001e4cc: syscall; cmp rax, -0x1000; ja 0x1e4e0; ret; 
0x000000000001e78d: syscall; cmp rax, -0x1000; ja 0x1e7a0; ret; 
0x000000000001eaf9: syscall; cmp rax, -0x1000; ja 0x1eb08; ret; 
0x000000000001ece8: syscall; cmp rax, -0x1000; ja 0x1ecf8; ret; 
0x000000000001ed37: syscall; cmp rax, -0x1000; ja 0x1ed48; ret; 
0x000000000001ed88: syscall; cmp rax, -0x1000; ja 0x1ed98; ret; 
0x000000000001edc9: syscall; cmp rax, -0x1000; ja 0x1edd8; ret; 
0x000000000001edf9: syscall; cmp rax, -0x1000; ja 0x1ee08; ret; 
0x000000000001ee29: syscall; cmp rax, -0x1000; ja 0x1ee38; ret; 
0x000000000001ee7f: syscall; cmp rax, -0x1000; ja 0x1eea8; ret; 
0x000000000001eede: syscall; cmp rax, -0x1000; ja 0x1ef08; ret; 
0x000000000001ef66: syscall; cmp rax, -0x1000; ja 0x1efa0; ret; 
0x000000000001efd4: syscall; cmp rax, -0x1000; ja 0x1f008; ret; 
0x000000000001f026: syscall; cmp rax, -0x1000; ja 0x1f038; ret; 
0x000000000001f05c: syscall; cmp rax, -0x1000; ja 0x1f070; ret; 
0x000000000001f089: syscall; cmp rax, -0x1000; ja 0x1f098; ret; 
0x000000000001f184: syscall; cmp rax, -0x1000; ja 0x1f1e8; pop rbx; pop rbp; ret; 
0x000000000001f209: syscall; cmp rax, -0xfff; jae 0x1f214; ret; 
0x000000000001f239: syscall; cmp rax, -0xfff; jae 0x1f244; ret; 
0x000000000001f269: syscall; cmp rax, -0xfff; jae 0x1f274; ret; 
0x0000000000023669: syscall; cmp rax, -0xfff; jae 0x23674; ret; 
0x000000000001f2e9: syscall; ret; 
0x00000000000022a7: test al, 0x48; mov dword ptr [rbp - 0x50], ecx; mov qword ptr [rbp - 0x48], rdi; call rax; 
0x00000000000195dc: test al, al; jne 0x195ae; movsx eax, dl; neg eax; ret; 
0x0000000000018c3b: test bh, bh; dec dword ptr [rcx - 0x77]; ret; 
0x000000000000cd0d: test bh, ch; add dword ptr [rax], eax; add byte ptr [rax - 0x73], cl; cmp eax, 0x21c4f; call rdx; 
0x000000000001d5ef: test byte ptr [rax + 0x39], 0xc8; je 0x1d5e0; xor eax, eax; ret; 
0x000000000001a035: test byte ptr [rax + 0x3b], 0x48; sbb byte ptr [rdi - 0x10], bh; mov qword ptr [rax + 0x20], rcx; mov byte ptr [rax + 0x28], 1; ret; 
0x0000000000019fcd: test byte ptr [rax + 0x3b], 0x57; sbb byte ptr [rdi - 0x10], bh; mov qword ptr [rdi + 0x20], rdx; mov byte ptr [rdi + 0x28], 1; ret; 
0x0000000000007874: test byte ptr [rax + rax*8], ah; add byte ptr [rax], al; add dh, dh; ret 0x7404; 
0x0000000000006ed9: test byte ptr [rax + rdi*4], ah; add al, byte ptr [rax]; add byte ptr [rax + 0x29], cl; ret; 
0x000000000001a57f: test byte ptr [rax - 0x73], 0x3d; int 0xab; add byte ptr [rax], al; mov eax, 0x15; syscall; 
0x00000000000162cc: test byte ptr [rax - 0x75], 0x3c; ret 0xb60f; 
0x000000000001d624: test byte ptr [rax - 0x77], 0xcf; sub rdx, rcx; call 0x23580; mov qword ptr [rip + 0x11ac1], rax; add rsp, 8; ret; 
0x0000000000010d38: test byte ptr [rax - 0x7d], 0xe8; add dword ptr [rax - 0x7d], ecx; ret 0x4810; 
0x000000000002256a: test byte ptr [rax], al; add byte ptr [rax], al; add byte ptr [rax], al; bsf eax, eax; lea rax, [rax + rdi + 0x10]; ret; 
0x000000000000114a: test byte ptr [rax], al; add byte ptr [rax], al; add byte ptr [rax], al; endbr64; add dword ptr [rdi + 4], 1; ret; 
0x000000000001edea: test byte ptr [rax], al; add byte ptr [rax], al; add byte ptr [rax], al; endbr64; mov eax, 0x15; syscall; 
0x000000000001ee1a: test byte ptr [rax], al; add byte ptr [rax], al; add byte ptr [rax], al; endbr64; mov eax, 3; syscall; 
0x00000000000121da: test byte ptr [rax], al; add byte ptr [rax], al; add byte ptr [rax], al; endbr64; ret; 
0x000000000001f01a: test byte ptr [rax], al; add byte ptr [rax], al; add byte ptr [rax], al; endbr64; xor eax, eax; syscall; 
0x000000000001d71a: test byte ptr [rax], al; add byte ptr [rax], al; add byte ptr [rax], al; lea rax, [rip + 0x8977]; ret; 
0x000000000001d6ea: test byte ptr [rax], al; add byte ptr [rax], al; add byte ptr [rax], al; lea rax, [rip + 0x89be]; ret; 
0x000000000001d72a: test byte ptr [rax], al; add byte ptr [rax], al; add byte ptr [rax], al; lea rax, [rip + 0x89d5]; ret; 
0x000000000001d6fa: test byte ptr [rax], al; add byte ptr [rax], al; add byte ptr [rax], al; lea rax, [rip + 0x89e0]; ret; 
0x000000000001d70a: test byte ptr [rax], al; add byte ptr [rax], al; add byte ptr [rax], al; lea rax, [rip + 0x89e3]; ret; 
0x000000000001d6da: test byte ptr [rax], al; add byte ptr [rax], al; add byte ptr [rax], al; lea rax, [rip + 0x89e8]; ret; 
0x000000000001edaa: test byte ptr [rax], al; add byte ptr [rax], al; add byte ptr [rax], al; mov dword ptr [rip + 0x10386], 0x16; mov eax, 0xffffffff; ret; 
0x000000000001ed5a: test byte ptr [rax], al; add byte ptr [rax], al; add byte ptr [rax], al; mov dword ptr [rip + 0x103d6], 0x16; mov eax, 0xffffffff; ret; 
0x000000000001ed0a: test byte ptr [rax], al; add byte ptr [rax], al; add byte ptr [rax], al; mov dword ptr [rip + 0x10426], 0x16; mov eax, 0xffffffff; ret; 
0x0000000000019fba: test byte ptr [rax], al; add byte ptr [rax], al; add byte ptr [rax], al; mov qword ptr [rdi + 0x20], rsi; ret; 
0x000000000001f3d6: test byte ptr [rax], al; add byte ptr [rax], al; add byte ptr [rax], al; nop dword ptr [rax]; mov rax, 0xf; syscall; 
0x000000000001227a: test byte ptr [rax], al; add byte ptr [rax], al; add byte ptr [rax], al; ret; 
0x0000000000007afc: test byte ptr [rbx + 0xf000003], ah; xchg eax, ebp; ret 0x8341; 
0x0000000000012710: test byte ptr [rcx + rax], cl; add byte ptr [rax + 0x39], cl; ret 0xf48; 
0x0000000000005bc9: test byte ptr [rcx + rcx*4 - 0x21], 0x83; ret; 
0x000000000000452a: test byte ptr [rcx - 0x75], 0xb5; nop; add eax, dword ptr [rax]; add byte ptr [rdi], cl; xchg eax, ebp; ret 0xb6e8; 
0x0000000000005434: test byte ptr [rdi - 0x7b000000], cl; ror byte ptr [rbp + rcx*4 + 0x2d], 0xde; ret 0xffff; 
0x0000000000003a9a: test byte ptr [rdi], 0x84; ret; 
0x0000000000005b7b: test byte ptr [rdx + 2], cl; add byte ptr [rax], al; mov edi, 1; call rax; 
0x00000000000016ec: test byte ptr [rdx - 0x14000002], ah; rol byte ptr [rcx - 0x77], cl; ret 0xd231; 
0x0000000000017e7a: test byte ptr [rip + 0x1579f], 0x40; jne 0x17e88; ret; 
0x000000000002305d: test byte ptr [rsi + 0x48000000], bl; bsf eax, edx; ret; 
0x000000000000374c: test cl, ah; idiv bh; dec dword ptr [rax - 0x7d]; ret 0x4001; 
0x0000000000012da7: test cl, cl; cmove r8, rax; mov rax, r8; ret; 
0x000000000001b0d5: test dl, dl; cmove esi, eax; mov eax, 0x9e; syscall; 
0x000000000000d8d8: test dword ptr [rax + 0x21], 0xc73948f0; jne 0xd8e8; pop rbx; ret; 
0x0000000000005b72: test dword ptr [rax + 0x48fffffe], esi; test eax, eax; je 0x5dca; mov edi, 1; call rax; 
0x0000000000022838: test dword ptr [rax + rax - 0x8b70000], ecx; ret 2; 
0x0000000000011a1e: test dword ptr [rax - 0x73], 0x4810247c; cmove ecx, esi; sub rsp, 8; mov esi, dword ptr [r13 + 0x10]; push qword ptr [rsp + 8]; call rax; 
0x000000000001e77b: test dword ptr [rax - 0x77], 0xca8948d6; cmp r9d, 1; ja 0x1e7b0; mov eax, 0x106; syscall; 
0x000000000001ecd9: test dword ptr [rax - 0x77], 0xf88341d6; add dword ptr [rdi + 0x2d], esi; mov eax, 4; syscall; 
0x000000000001ed79: test dword ptr [rax - 0x77], 0xf88341d6; add dword ptr [rdi + 0x2d], esi; mov eax, 6; syscall; 
0x000000000001ed28: test dword ptr [rax - 0x77], 0xf88341d6; add dword ptr [rdi + 0x2e], esi; mov eax, 5; syscall; 
0x0000000000012707: test dword ptr [rax - 0x7c000005], ebx; cli; dec dword ptr [rdi]; test byte ptr [rcx + rax], cl; add byte ptr [rax + 0x39], cl; ret 0xf48; 
0x0000000000022518: test dword ptr [rbx + 0x31000000], esp; rol bl, 0x83; ret 0x6620; 
0x0000000000002295: test dword ptr [rdi + rdi*8 - 1], eax; jmp qword ptr [rsi + 0xf]; 
0x000000000001bbef: test dword ptr [rdx + rdi*8 - 1], ecx; jmp qword ptr [rsi + 0xf]; 
0x000000000001bbc7: test dword ptr [rdx + rdi*8 - 1], esi; jmp qword ptr [rsi - 0x7f]; 
0x000000000001af96: test dword ptr [rip + 0x48000004], esi; lea esi, [rip + 0x13fde]; mov edi, 0x3005; mov eax, 0x9e; syscall; 
0x000000000001391d: test dword ptr [rsi], edi; add al, byte ptr [rax]; add byte ptr [rbx - 0x28f7b], cl; jmp qword ptr [rsi + 0xf]; 
0x0000000000012275: test eax, 0x1f0f2e66; test byte ptr [rax], al; add byte ptr [rax], al; add byte ptr [rax], al; ret; 
0x000000000001460e: test eax, 0x5e410001; ret; 
0x0000000000003424: test eax, eax; add byte ptr [rax], al; add dh, dh; ret 0x7404; 
0x0000000000011f80: test eax, eax; je 0x11f8d; mov rax, qword ptr [rax + 8]; add rax, qword ptr [r15]; call rax; 
0x0000000000016940: test eax, eax; je 0x1695e; lea rbx, [rbp + rdx*8]; nop dword ptr [rax]; call qword ptr [rbx]; 
0x000000000001a85a: test eax, eax; je 0x1a867; mov rdi, r15; call rax; 
0x000000000001abbe: test eax, eax; je 0x1abc8; mov rdi, qword ptr [rbp]; call rax; 
0x0000000000022646: test eax, eax; je 0x22660; bsf eax, eax; add rax, rdi; add rax, rcx; ret; 
0x0000000000005b78: test eax, eax; je 0x5dca; mov edi, 1; call rax; 
0x0000000000015163: test eax, eax; jne 0x15180; mov qword ptr [rbx], 0; pop rbx; or dword ptr [rip + 0x19e22], 1; ret; 
0x000000000001dcaa: test eax, eax; jne 0x1dd20; mov rcx, qword ptr [rsp + 0x10]; mov rdi, qword ptr [rsp + 0x18]; call rcx; 
0x0000000000001dd2: test eax, eax; jne 0x1de0; pop rbx; ret; 
0x00000000000224a3: test eax, eax; jne 0x22580; pmovmskb eax, xmm1; bsf eax, eax; lea rax, [rdi + rax + 0x30]; ret; 
0x0000000000022545: test eax, eax; jne 0x225a0; xor eax, eax; ret; 
0x0000000000022515: test eax, eax; jne 0x225c0; xor eax, eax; ret; 
0x0000000000022791: test eax, eax; jne 0x227e0; pmovmskb eax, xmm1; bsf eax, eax; lea rax, [rdi + rax + 0x30]; ret; 
0x000000000001ae3e: test ebp, edi; add dword ptr [rax], eax; add byte ptr [rbx + 0x1412f15], cl; add dh, dh; ret 0xf03; 
0x0000000000012494: test ebp, edx; add dword ptr [rax], eax; add byte ptr [rax + 0x63], cl; ret; 
0x0000000000022480: test ebx, ebx; add byte ptr [rax], al; add byte ptr [rsi + 0xf], ah; xlatb; ret 0xc085; 
0x000000000000e1e7: test ebx, ebx; jne 0xe1ed; call rax; 
0x000000000000e0d1: test ecx, ecx; jne 0xe0d7; call rax; 
0x000000000000ead3: test ecx, ecx; jne 0xeae7; mov qword ptr [rbp - 0xd8], r11; call rax; 
0x0000000000018b7b: test edi, edi; dec dword ptr [rcx - 0x77]; ret; 
0x000000000001f175: test edi, edi; je 0x1f1b0; mov r10d, ebx; mov rdi, rbp; mov eax, 9; syscall; 
0x000000000001af93: test edi, edi; jne 0x1b3d0; lea rsi, [rip + 0x13fde]; mov edi, 0x3005; mov eax, 0x9e; syscall; 
0x000000000001a62c: test edx, edx; je 0x1a640; lea rdi, [rcx + rsi + 0x20]; jmp rdx; 
0x0000000000022e56: test edx, edx; je 0x22e5e; bsf eax, edx; ret; 
0x0000000000022efb: test edx, edx; je 0x22f10; bsf rax, rdx; ret; 
0x0000000000022e9e: test edx, edx; je 0x22f20; bsf rax, rdx; ret; 
0x00000000000230ca: test edx, edx; je 0x230f0; bsf rax, rdx; ret; 
0x000000000002305a: test edx, edx; je 0x23100; bsf rax, rdx; ret; 
0x00000000000111d9: test edx, edx; jne 0x111e0; mov qword ptr [rbx], rax; add rsp, 0x10; pop rbx; ret; 
0x000000000000e99e: test edx, edx; jne 0xe9a4; call rax; 
0x0000000000012d30: test esi, esi; je 0x12d37; mov qword ptr [rsi], rdi; mov rax, r8; ret; 
0x0000000000022fc5: test esi, esi; jne 0x22fcd; xor rax, rax; ret; 
0x000000000000e1e6: test r11d, r11d; jne 0xe1ed; call rax; 
0x000000000000ead2: test r9d, r9d; jne 0xeae7; mov qword ptr [rbp - 0xd8], r11; call rax; 
0x0000000000011f7f: test rax, rax; je 0x11f8d; mov rax, qword ptr [rax + 8]; add rax, qword ptr [r15]; call rax; 
0x000000000001a859: test rax, rax; je 0x1a867; mov rdi, r15; call rax; 
0x000000000001abbd: test rax, rax; je 0x1abc8; mov rdi, qword ptr [rbp]; call rax; 
0x0000000000005b77: test rax, rax; je 0x5dca; mov edi, 1; call rax; 
0x000000000001f174: test rdi, rdi; je 0x1f1b0; mov r10d, ebx; mov rdi, rbp; mov eax, 9; syscall; 
0x000000000001af92: test rdi, rdi; jne 0x1b3d0; lea rsi, [rip + 0x13fde]; mov edi, 0x3005; mov eax, 0x9e; syscall; 
0x000000000001a62b: test rdx, rdx; je 0x1a640; lea rdi, [rcx + rsi + 0x20]; jmp rdx; 
0x0000000000022efa: test rdx, rdx; je 0x22f10; bsf rax, rdx; ret; 
0x0000000000022e9d: test rdx, rdx; je 0x22f20; bsf rax, rdx; ret; 
0x00000000000230c9: test rdx, rdx; je 0x230f0; bsf rax, rdx; ret; 
0x0000000000023059: test rdx, rdx; je 0x23100; bsf rax, rdx; ret; 
0x0000000000012d2f: test rsi, rsi; je 0x12d37; mov qword ptr [rsi], rdi; mov rax, r8; ret; 
0x0000000000022fc4: test rsi, rsi; jne 0x22fcd; xor rax, rax; ret; 
0x000000000001deb4: ud2; mov rax, qword ptr [rbx + 0x10]; add rax, qword ptr [r14]; call rax; 
0x0000000000022331: wait; add al, byte ptr [rax]; add byte ptr [rax + 1], cl; clc; add rax, rcx; ret; 
0x0000000000018ab4: xchg bh, bh; dec dword ptr [rcx - 0x77]; ret; 
0x000000000001d074: xchg byte ptr [rax + rax - 0x177d0000], cl; add al, byte ptr [rbx - 0x78f0d208]; movabs dword ptr [0x48d48c689000000], eax; jbe 0x1d09b; mov dh, 0x44; ret; 
0x0000000000022330: xchg byte ptr [rbx + 0x48000002], bl; add eax, edi; add rax, rcx; ret; 
0x0000000000014f22: xchg byte ptr [rdx], cl; add dword ptr [rax], eax; mov eax, 0x59; mov rbp, rsp; mov rsi, rbp; syscall; 
0x000000000000df2a: xchg dword ptr [rax], ebx; add al, 0; add byte ptr [rcx - 0x77], cl; ret; 
0x0000000000018e7a: xchg dword ptr [rcx - 0x76fffffd], edx; ret 0xc083; 
0x000000000000a4cc: xchg dword ptr [rip - 0x76fffffd], ebx; ret 0xe8c0; 
0x000000000000304f: xchg eax, eax; add byte ptr [rax], al; add dh, dh; ret 0x7404; 
0x0000000000003418: xchg eax, ebp; call 0xfffffffff6003421; ret 0x7402; 
0x000000000001393b: xchg eax, ebp; cmp ch, 0xff; jmp qword ptr [rsi + 0xf]; 
0x000000000001f1f8: xchg eax, ebp; nop dword ptr [rax]; endbr64; mov eax, 0xb; syscall; 
0x00000000000107d7: xchg eax, ebp; ret 0x2148; 
0x00000000000012dd: xchg eax, ebp; ret 0x3145; 
0x000000000001e0f8: xchg eax, ebp; ret 0x3948; 
0x0000000000007b03: xchg eax, ebp; ret 0x8341; 
0x000000000001ae82: xchg eax, ebp; ret 0x8941; 
0x0000000000004533: xchg eax, ebp; ret 0xb6e8; 
0x0000000000005f00: xchg eax, ebp; ret 0xc383; 
0x000000000000924d: xchg eax, ebp; rol byte ptr [rdx + rdx*8 - 0x72b7f08c], 0x1d; sti; ret 1; 
0x00000000000012e6: xchg eax, ecx; add byte ptr [rax], al; mov qword ptr [rbx + 0x18], rax; pop rbx; ret; 
0x0000000000003043: xchg eax, edi; call 0xfffffffff600304c; ret 0x7402; 
0x000000000001f5f5: xchg eax, edi; cmp eax, 0x315a0000; rcr byte ptr [rbp + 0x41], 0x5c; ret; 
0x0000000000015387: xchg eax, edx; ret 0xc148; 
0x0000000000007867: xchg eax, esp; and al, 0xe8; add eax, dword ptr [rax]; add dh, dh; ret 0x7402; 
0x000000000001e1d0: xchg eax, esp; ret 0x2040; 
0x0000000000016e57: xchg eax, esp; ret 0x348; 
0x000000000000caaf: xchg eax, esp; ret 0x3948; 
0x0000000000011e97: xchg eax, esp; ret 0x854d; 
0x000000000000b370: xchg eax, esp; ret 0xb60f; 
0x000000000000c554: xchg eax, esp; ret 0xd108; 
0x000000000001ae33: xchg eax, esp; ret 0xfb83; 
0x0000000000004058: xchg eax, esp; ret; 
0x0000000000016e54: xchg eax, esp; ror byte ptr [rdi], 0x94; ret 0x348; 
0x0000000000002175: xchg esi, esp; add byte ptr [rax], al; add byte ptr [rax - 0x7d], cl; ret; 
0x000000000001f2a9: xlatb; mov eax, esi; syscall; 
0x000000000001f2b8: xlatb; mov eax, r8d; syscall; 
0x000000000002237f: xlatb; ret 0xc085; 
0x0000000000022d40: xlatb; ret 0xc148; 
0x0000000000022e78: xlatb; ret 0xf66; 
0x0000000000022394: xlatb; ret; 
0x0000000000022771: xlatb; rol byte ptr [rbp + 0x664975c0], 0xf; xlatb; ret 0xc085; 
0x0000000000022543: xlatb; rol dword ptr [rbp + 0x315775c0], 0xc0; ret; 
0x0000000000022513: xlatb; rol dword ptr [rbp - 0x5c7af040], 0; add byte ptr [rax], al; xor eax, eax; ret; 
0x00000000000209c6: xlatb; sal bh, 1; ret 0x8000; 
0x0000000000020886: xlatb; sal bh, 1; ret 0xc000; 
0x0000000000020746: xlatb; sal bh, 1; ret 0xe000; 
0x0000000000020606: xlatb; sal bh, 1; ret 0xf000; 
0x00000000000204c6: xlatb; sal bh, 1; ret 0xf800; 
0x0000000000020386: xlatb; sal bh, 1; ret 0xfc00; 
0x0000000000020246: xlatb; sal bh, 1; ret 0xfe00; 
0x0000000000020106: xlatb; sal bh, 1; ret 0xff00; 
0x000000000001ffc6: xlatb; sal bh, 1; ret 0xff80; 
0x000000000001fe86: xlatb; sal bh, 1; ret 0xffc0; 
0x000000000001fd46: xlatb; sal bh, 1; ret 0xffe0; 
0x000000000001fc06: xlatb; sal bh, 1; ret 0xfff0; 
0x000000000001fac6: xlatb; sal bh, 1; ret 0xfff8; 
0x000000000001f986: xlatb; sal bh, 1; ret 0xfffc; 
0x000000000001f846: xlatb; sal bh, 1; ret 0xfffe; 
0x000000000001dcfd: xlatb; xor r12d, r12d; call rsi; 
0x000000000001f48b: xor al, 0x24; movups xmmword ptr [rsp + 0x10], xmm7; mov r10d, 8; mov eax, 0xd; syscall; 
0x000000000001b1aa: xor bl, byte ptr [rdi - 2]; jmp qword ptr [rsi - 0x70]; 
0x000000000002249d: xor byte ptr [r14 + 0xf], r12b; xlatb; ret; 
0x000000000002250f: xor byte ptr [r14 + 0xf], r12b; xlatb; rol dword ptr [rbp - 0x5c7af040], 0; add byte ptr [rax], al; xor eax, eax; ret; 
0x000000000001e32c: xor byte ptr [rax + 0x39], cl; ret 0x830f; 
0x000000000000568b: xor byte ptr [rax + 1], cl; ret; 
0x000000000001ad94: xor byte ptr [rax - 0x75], cl; push rsp; and al, 0x38; mov rcx, qword ptr [rsp + 0x40]; add rsp, 0x48; jmp qword ptr [rax]; 
0x000000000001ad12: xor byte ptr [rax - 0x75], cl; push rsp; and al, 0x38; mov rcx, qword ptr [rsp + 0x40]; add rsp, 0x58; jmp qword ptr [rax]; 
0x000000000002327f: xor byte ptr [rax - 0x77], cl; add cl, byte ptr [rax - 0x7d]; ret 0x4808; 
0x000000000001afa4: xor byte ptr [rax], al; add byte ptr [rax + 0x9e], bh; syscall; 
0x0000000000012a23: xor byte ptr [rax], al; add byte ptr [rax], al; mov qword ptr [rsp + 0x18], rax; call 0x12290; add rsp, 0xd8; ret; 
0x000000000000d718: xor byte ptr [rbp + 0x25], dh; mov rdi, rbp; call qword ptr [rip + 0x218bc]; xor eax, eax; pop rbp; ret; 
0x000000000002356b: xor byte ptr [rbp + 0xf], al; adc dword ptr [rbx], eax; ret; 
0x0000000000003a94: xor byte ptr [rbp - 0x7ab7fffe], bl; test byte ptr [rdi], 0x84; ret; 
0x000000000001ee0c: xor byte ptr [rbx], al; add dword ptr [rax], eax; mov eax, 0xffffffff; ret; 
0x000000000001ddcc: xor byte ptr [rbx], dl; add dword ptr [rax], eax; add rsp, 8; pop rbx; pop rbp; ret; 
0x00000000000139ce: xor byte ptr [rcx + rcx*4 + 0xd], cl; ret 0x1b6; 
0x000000000001f00c: xor byte ptr [rcx], al; add dword ptr [rax], eax; mov eax, 0xffffffff; ret; 
0x000000000001cb1f: xor byte ptr [rdi + rax - 0x7d], 0xd; ret; 
0x000000000002343a: xor byte ptr [rdi], cl; adc dword ptr [rdi + rdx - 0x10], esp; movups xmmword ptr [rdi + rdx - 0x20], xmm5; movups xmmword ptr [rdi + rdx - 0x30], xmm6; movups xmmword ptr [rdi + rdx - 0x40], xmm7; ret; 
0x000000000001ef0c: xor byte ptr [rdx], al; add dword ptr [rax], eax; mov eax, 0xffffffff; ret; 
0x000000000000bc2b: xor byte ptr [rsi + 0xf], ah; insb byte ptr [rdi], dx; ret 0x290f; 
0x000000000000bc7e: xor byte ptr [rsi + 0xf], ah; insb byte ptr [rdi], dx; ret; 
0x000000000002249e: xor byte ptr [rsi + 0xf], ah; xlatb; ret; 
0x0000000000022510: xor byte ptr [rsi + 0xf], ah; xlatb; rol dword ptr [rbp - 0x5c7af040], 0; add byte ptr [rax], al; xor eax, eax; ret; 
0x000000000001eb0c: xor byte ptr [rsi], al; add dword ptr [rax], eax; mov rax, -1; ret; 
0x00000000000183e4: xor dl, dh; ret; 
0x00000000000044b5: xor dword ptr [rax - 0x77], ecx; ret; 
0x0000000000014dc6: xor dword ptr [rax], edx; jae 0x14d75; xor eax, eax; ret; 
0x000000000001a633: xor dword ptr [rax], esp; jmp rdx; 
0x0000000000014dc5: xor dword ptr [rax], r10d; jae 0x14d75; xor eax, eax; ret; 
0x0000000000014466: xor dword ptr [rbx + 0x75000001], ebp; adc ecx, dword ptr [rbx + rcx*4 + 5]; sub al, 0xab; add dword ptr [rax], eax; mov rax, r8; ret; 
0x000000000001af9d: xor eax, 0x13fde; mov edi, 0x3005; mov eax, 0x9e; syscall; 
0x0000000000019f76: xor eax, 0x1514d; call 0x1f200; mov qword ptr [rip + 0x1514d], 0; add rsp, 8; ret; 
0x000000000001e4b8: xor eax, 0x25d089; add byte ptr [rcx], al; cmp eax, 0x410000; je 0x1e4ee; mov eax, 0x101; syscall; 
0x00000000000016a1: xor eax, 0x2bf42; lea rdi, [rip + 0x24c83]; call 0x12f0; add rsp, 0x40; pop rbx; ret; 
0x000000000001af97: xor eax, 0x48000004; lea esi, [rip + 0x13fde]; mov edi, 0x3005; mov eax, 0x9e; syscall; 
0x0000000000005e29: xor eax, dword ptr [rdx + 0x48eb0002]; mov rdx, r14; xor esi, esi; mov rdi, r15; call rcx; 
0x000000000001eac1: xor eax, eax; pop rbp; pop r12; ret; 
0x000000000000d724: xor eax, eax; pop rbp; ret; 
0x000000000001ea29: xor eax, eax; pop rbx; pop rbp; pop r12; ret; 
0x0000000000012bf4: xor eax, eax; pop rbx; pop rbp; ret; 
0x00000000000068c0: xor eax, eax; ret; 
0x000000000001f024: xor eax, eax; syscall; 
0x000000000001f024: xor eax, eax; syscall; cmp rax, -0x1000; ja 0x1f038; ret; 
0x0000000000012d2d: xor eax, eax; test rsi, rsi; je 0x12d37; mov qword ptr [rsi], rdi; mov rax, r8; ret; 
0x00000000000012e2: xor ecx, ecx; call 0xa460; mov qword ptr [rbx + 0x18], rax; pop rbx; ret; 
0x00000000000012e0: xor ecx, ecx; xor ecx, ecx; call 0xa460; mov qword ptr [rbx + 0x18], rax; pop rbx; ret; 
0x000000000001f1c6: xor edi, edi; or r10d, 0x40; mov eax, ecx; syscall; 
0x000000000000cc83: xor edx, edx; add rdi, 0x1c; mov edx, 1; mov esi, 0x81; mov eax, 0xca; syscall; 
0x000000000001efc1: xor edx, edx; and eax, 0x410000; cmp eax, 0x410000; je 0x1efe0; mov eax, 0x101; syscall; 
0x000000000001d5eb: xor edx, edx; div rsi; cmp rax, rcx; je 0x1d5e0; xor eax, eax; ret; 
0x00000000000050f3: xor esi, esi; add r12d, 1; shl rax, 4; lea rdi, [r13 + rax + 0x480]; call rdx; 
0x00000000000051ac: xor esi, esi; add r12d, 1; shl rax, 4; lea rdi, [r13 + rax + 0xe08]; call rdx; 
0x0000000000017cc2: xor esi, esi; add r12d, 1; shl rax, 4; lea rdi, [rcx + rax + 0xe08]; call rdx; 
0x0000000000016670: xor esi, esi; add r13d, 1; shl rax, 4; lea rdi, [r14 + rax + 0x480]; call rdx; 
0x0000000000016742: xor esi, esi; call rdx; 
0x0000000000005ece: xor esi, esi; lea rdi, [rip + 0x28b11]; add r14, 0xe0; shl r14, 4; lea rdx, [r13 + r14 + 8]; call rcx; 
0x000000000001a57e: xor esi, esi; lea rdi, [rip + 0xabcd]; mov eax, 0x15; syscall; 
0x000000000001b014: xor esi, esi; mov edi, 0x3003; mov eax, 0x9e; syscall; 
0x0000000000005e32: xor esi, esi; mov rdi, r15; call rcx; 
0x0000000000001d10: xor esi, esi; pop rbx; mov rax, rsi; ret; 
0x000000000001dcff: xor esp, esp; call rsi; 
0x0000000000014771: xor esp, esp; pop rbx; pop rbp; mov rax, r12; pop r12; ret; 
0x000000000000cc82: xor r10d, r10d; add rdi, 0x1c; mov edx, 1; mov esi, 0x81; mov eax, 0xca; syscall; 
0x000000000001efc0: xor r10d, r10d; and eax, 0x410000; cmp eax, 0x410000; je 0x1efe0; mov eax, 0x101; syscall; 
0x000000000001dcfe: xor r12d, r12d; call rsi; 
0x0000000000014770: xor r12d, r12d; pop rbx; pop rbp; mov rax, r12; pop r12; ret; 
0x0000000000012d2c: xor r8d, r8d; test rsi, rsi; je 0x12d37; mov qword ptr [rsi], rdi; mov rax, r8; ret; 
0x00000000000012df: xor r9d, r9d; xor ecx, ecx; call 0xa460; mov qword ptr [rbx + 0x18], rax; pop rbx; ret; 
0x0000000000022fc9: xor rax, rax; ret; 

4201 gadgets found
